((iwxpy.utils.puid_map
TwoWayDict
p0
(dp1
S'_reversed'
p2
(dp3
V5957d8a4
p4
V@cbe6141d80bf3a7eab885166ca3c0870cfcd3cc15831e0366c465a5c5957d8a4
p5
sVb7bf9d58
p6
V@@79688322a064612369b18341e335e8f79627d230d63d7f29d3fd959bb7bf9d58
p7
ssS'data'
p8
(dp9
g7
g6
sg5
g4
ssb(iwxpy.utils.puid_map
TwoWayDict
p10
(dp11
g2
(dp12
g4
I788390981
ssg8
(dp13
I788390981
g4
ssb(iwxpy.utils.puid_map
TwoWayDict
p14
(dp15
g2
(dp16
sg8
(dp17
sb(iwxpy.utils.puid_map
TwoWayDict
p18
(dp19
g2
(dp20
g4
(V\u9b3c\u513f\u005c
p21
I1
V\u6cb3\u5317
p22
V\u77f3\u5bb6\u5e84
p23
tp24
sg6
(Vtestwx
p25
NNNtp26
ssg8
(dp27
g24
g4
sg26
g6
ssbtp28
.