((iwxpy.utils.puid_map
TwoWayDict
p0
(dp1
S'_reversed'
p2
(dp3
V848104a4
p4
V@f3dd5b6602672c9be88290a79666852d25a97bce6adf8afeb2aff256848104a4
p5
sVa09e08bf
p6
V@7423cb31700a839f88fd77eaec823a38c5f524f26bdecbc707fb717fa09e08bf
p7
sVc428361e
p8
V@@4883664fb5d04777e9a0521e8d43305f1f8b71371629219917dc58abdad6fefb
p9
sVb1073323
p10
V@baabcb49020633618d338fd8d0b3b06e95ab6c4a37cdd005a144114311ea6b57
p11
sVa131af3f
p12
V@ab91e733765e76e541cb53f1f3e792d0c449d70c989db1337806581d81a1d081
p13
sV03b687e2
p14
V@@4edb739223021cdfaf5980a9a9877c7f993a079e8fe15859c064865db3e20572
p15
sV958008e2
p16
V@5ba5a01c17a334ba6b316be752a83758fd2fb5cafee696cf5ae1233eba956d94
p17
sVf0bb3750
p18
V@@b754f82583d505dce4bb47688c906e445d1a8e0ef6f6a408893d10d447bd4c53
p19
sV8dd525db
p20
V@11e00c2d06e7bfdf8d421b11139d5fe6
p21
ssS'data'
p22
(dp23
g15
g14
sg9
g8
sg21
g20
sg5
g4
sg17
g16
sg13
g12
sg11
g10
sg19
g18
sg7
g6
ssb(iwxpy.utils.puid_map
TwoWayDict
p24
(dp25
g2
(dp26
g12
I164115627
ssg22
(dp27
I164115627
g12
ssb(iwxpy.utils.puid_map
TwoWayDict
p28
(dp29
g2
(dp30
g20
V\u5f20\u4e9a\u661f
p31
ssg22
(dp32
g31
g20
ssb(iwxpy.utils.puid_map
TwoWayDict
p33
(dp34
g2
(dp35
g4
(V\u5c0f\u73c2
p36
NNNtp37
sg6
(V\U0001f60f
p38
NNNtp39
sg8
(V\u6d4b\u8bd5\u7fa4( \u2022\u0e34_\u2022 \u0e34)
p40
NNNtp41
sg10
(V\u6668
p42
I1
V\u6cb3\u5317
p43
V\u77f3\u5bb6\u5e84
p44
tp45
sg12
(V\u77f3\u6cab\u6cab
p46
I0
S''
p47
g47
tp48
sg14
(Vtestwx
p49
NNNtp50
sg16
(V\u9b3c\u513f\u005c
p51
I1
V\u6cb3\u5317
p52
V\u77f3\u5bb6\u5e84
p53
tp54
sg18
(V\u6d4b\u8bd5\u7fa42
p55
NNNtp56
sg20
(VXerxes\U0001f31f
p57
I1
V\u6cb3\u5357
p58
V\u90d1\u5dde
p59
tp60
ssg22
(dp61
g48
g12
sg60
g20
sg37
g4
sg39
g6
sg54
g16
sg50
g14
sg45
g10
sg56
g18
sg41
g8
ssbtp62
.