((iwxpy.utils.puid_map
TwoWayDict
p0
(dp1
S'_reversed'
p2
(dp3
V9b0dff4a
p4
V@59d7503209468927921fd51f26fd187c4e130a31d5a9d5554bd2316ec175bb34
p5
sVe2fbebd2
p6
V@@3c3a5d4a1ba2485e27e9d77eaaeac09bb8cec66340a9700cfa887938e2fbebd2
p7
ssS'data'
p8
(dp9
g5
g4
sg7
g6
ssb(iwxpy.utils.puid_map
TwoWayDict
p10
(dp11
g2
(dp12
g4
I452533314
ssg8
(dp13
I452533314
g4
ssb(iwxpy.utils.puid_map
TwoWayDict
p14
(dp15
g2
(dp16
sg8
(dp17
sb(iwxpy.utils.puid_map
TwoWayDict
p18
(dp19
g2
(dp20
g4
(V\u5c0f\u73c2
p21
I2
S''
p22
g22
tp23
sg6
(Vtestwx
p24
NNNtp25
ssg8
(dp26
g23
g4
sg25
g6
ssbtp27
.