((iwxpy.utils.puid_map
TwoWayDict
p0
(dp1
S'_reversed'
p2
(dp3
V7b5e0079
p4
V@caf8f95cf6edf14961839d4b0eebbf3fab9e45ebe8631f07f1ce59a10d5054f3
p5
sVf2090e82
p6
V@efd67ac23e7e798978acd46af2090e82
p7
sVbe51f36c
p8
V@7eec79e090499b33df376fdbcc6022ecb6ef15237ff4575926f7a15abe51f36c
p9
sV6d4b3485
p10
V@29843b84b23c61a006b8c1565880f2a4198ef674d64ff64e21f333ff0296517e
p11
sVf15e6985
p12
V@@61f2c384d5bfd78448141d1ec26968e0de3808b4606fe9113ef496d356a232a5
p13
sVc6f0e519
p14
V@@fbdb7479e534e81febb2e6993897346bc605e8fd5535fbe538022b1beb750195
p15
ssS'data'
p16
(dp17
g15
g14
sg13
g12
sg11
g10
sg5
g4
sg9
g8
sg7
g6
ssb(iwxpy.utils.puid_map
TwoWayDict
p18
(dp19
g2
(dp20
g4
I164115627
ssg16
(dp21
I164115627
g4
ssb(iwxpy.utils.puid_map
TwoWayDict
p22
(dp23
g2
(dp24
g6
V\u5f20\u4e9a\u661f
p25
ssg16
(dp26
g25
g6
ssb(iwxpy.utils.puid_map
TwoWayDict
p27
(dp28
g2
(dp29
g4
(V\u77f3\u6cab\u6cab
p30
I0
S''
p31
g31
tp32
sg6
(VXerxes\U0001f31f
p33
I1
V\u6cb3\u5357
p34
V\u90d1\u5dde
p35
tp36
sg8
(V\u6668
p37
I1
V\u6cb3\u5317
p38
V\u77f3\u5bb6\u5e84
p39
tp40
sg10
(V\u9b3c\u513f\u005c
p41
I1
V\u6cb3\u5317
p42
V\u77f3\u5bb6\u5e84
p43
tp44
sg12
(V\u6d4b\u8bd5\u7fa42
p45
NNNtp46
sg14
(V\u6d4b\u8bd5\u7fa4( \u2022\u0e34_\u2022 \u0e34)
p47
NNNtp48
ssg16
(dp49
g32
g4
sg36
g6
sg44
g10
sg40
g8
sg46
g12
sg48
g14
ssbtp50
.