((iwxpy.utils.puid_map
TwoWayDict
p0
(dp1
S'_reversed'
p2
(dp3
Vb7bf9d58
p4
V@@6cc6a4d7956838465c547bcaf7c58828209a8898761120da42df54dc3cc7b7f1
p5
sV5957d8a4
p6
V@54694c29f8f90f9189e1e05ea75216b19c5778469728c0347897bf61717b0dee
p7
sV191b686a
p8
V@@2c191c65fb4647c320e325923cdf6285a93b72e6a70fb814409265dd191b686a
p9
sV2c3e73ac
p10
V@@af5954d5ed6884bb14ac7adb995d8576b071e30f2bde5e505f39a94234844f5b
p11
ssS'data'
p12
(dp13
g5
g4
sg7
g6
sg9
g8
sg11
g10
ssb(iwxpy.utils.puid_map
TwoWayDict
p14
(dp15
g2
(dp16
g6
I788390981
ssg12
(dp17
I788390981
g6
ssb(iwxpy.utils.puid_map
TwoWayDict
p18
(dp19
g2
(dp20
sg12
(dp21
sb(iwxpy.utils.puid_map
TwoWayDict
p22
(dp23
g2
(dp24
g4
(Vtestwx
p25
NNNtp26
sg6
(V\u9b3c\u513f\u005c
p27
I1
V\u6cb3\u5317
p28
V\u77f3\u5bb6\u5e84
p29
tp30
sg8
(V\u6d4b\u8bd5\u7fa4( \u2022\u0e34_\u2022 \u0e34)
p31
NNNtp32
sg10
(V\u6d4b\u8bd5\u7fa42
p33
NNNtp34
ssg12
(dp35
g32
g8
sg30
g6
sg34
g10
sg26
g4
ssbtp36
.