((iwxpy.utils.puid_map
TwoWayDict
p0
(dp1
S'_reversed'
p2
(dp3
Vb2539f4a
p4
V@@09dce92cf61f6e60bafb59dda6d655a46020fe61ede046ec875b5d21e5dbb75a
p5
sVc2d575b8
p6
V@602d527fbb727608e202c9be66a89587faf7ce6d4664e0fa1af16e28c2d575b8
p7
sV28bb024f
p8
V@e979bdcc60661f3af8c91246a7e280f492e4571ed1d209d585754c9eb01ab1fd
p9
ssS'data'
p10
(dp11
g9
g8
sg5
g4
sg7
g6
ssb(iwxpy.utils.puid_map
TwoWayDict
p12
(dp13
g2
(dp14
g8
I3116880987
ssg10
(dp15
I3116880987
g8
ssb(iwxpy.utils.puid_map
TwoWayDict
p16
(dp17
g2
(dp18
g6
V\u9b3c\u513f\u005c
p19
ssg10
(dp20
V\u9b3c\u513f\u005c
p21
g6
ssb(iwxpy.utils.puid_map
TwoWayDict
p22
(dp23
g2
(dp24
g4
(Vtestwx
p25
NNNtp26
sg6
(V\u9b3c\u513f\u005c
p27
I1
V\u6cb3\u5317
p28
V\u77f3\u5bb6\u5e84
p29
tp30
sg8
(V\u4e03\u4e03
p31
I0
S''
p32
g32
tp33
ssg10
(dp34
g30
g6
sg33
g8
sg26
g4
ssbtp35
.