((iwxpy.utils.puid_map
TwoWayDict
p0
(dp1
S'_reversed'
p2
(dp3
V267b3f53
p4
V@@39dc701c5c19d5447fdde7ba4941411c3182be3d3dee6d66e832be2799f31b8a
p5
sV05181261
p6
V@b97db9b209a97f2df5f19a2273a0540ac505ad4018fdcb8b62ca381f338454f8
p7
sVd4a36180
p8
V@f2e390244c58cc8bd7a98fafa9aed9f9e25c70a87fc27b34f236cd2e8cdcf281
p9
sVcf333522
p10
V@fa6382432cedc4c8317ea983b00c20c271864dc57bf83b24298d0f1288474783
p11
sVf370d88d
p12
V@@fff577c7e743d9ac3edc9bb32eb7c05c908627d1f32d82f1dd88739afb3baa36
p13
sV68575cd7
p14
V@c7bb3b5b2c76898bedad8adeb8779645eff8892957f9ca6f6627c4a568575cd7
p15
sV58a5d145
p16
V@1f6493226f625d2881cf5892d8f2984915c83951bec1925e00a84b231a1f689c
p17
sVc421032f
p18
V@4f91f5f94f820bdfb85a4cb47e8c5d7a74b855674c3902c1032272bec421032f
p19
sV48a0b2aa
p20
V@@94a533994860346431fd3639c43d3a343b218113ba0c8e0a570b4f40d23b1598
p21
sVc8d8d8ef
p22
V@67da74ada656e247ed53ea56c78cf233
p23
ssS'data'
p24
(dp25
g11
g10
sg13
g12
sg17
g16
sg15
g14
sg7
g6
sg21
g20
sg9
g8
sg19
g18
sg5
g4
sg23
g22
ssb(iwxpy.utils.puid_map
TwoWayDict
p26
(dp27
g2
(dp28
g10
I164115627
ssg24
(dp29
I164115627
g10
ssb(iwxpy.utils.puid_map
TwoWayDict
p30
(dp31
g2
(dp32
g22
V\u5f20\u4e9a\u661f
p33
ssg24
(dp34
g33
g22
ssb(iwxpy.utils.puid_map
TwoWayDict
p35
(dp36
g2
(dp37
g4
(V\u6d4b\u8bd5\u7fa4( \u2022\u0e34_\u2022 \u0e34)
p38
NNNtp39
sg6
(V\u9b3c\u513f\u005c
p40
I1
V\u6cb3\u5317
p41
V\u77f3\u5bb6\u5e84
p42
tp43
sg8
(V\u6668
p44
I1
V\u6cb3\u5317
p45
V\u77f3\u5bb6\u5e84
p46
tp47
sg10
(V\u77f3\u6cab\u6cab
p48
I0
S''
p49
g49
tp50
sg12
(Vtestwx
p51
NNNtp52
sg14
(V\U0001f60f
p53
NNNtp54
sg16
(V\u5416~\u8d5e
p55
NNNtp56
sg18
(V\u5c0f\u73c2
p57
NNNtp58
sg20
(V\u6d4b\u8bd5\u7fa42
p59
NNNtp60
sg22
(VXerxes\U0001f31f
p61
I1
V\u6cb3\u5357
p62
V\u90d1\u5dde
p63
tp64
ssg24
(dp65
g50
g10
sg64
g22
sg58
g18
sg54
g14
sg56
g16
sg43
g6
sg52
g12
sg47
g8
sg60
g20
sg39
g4
ssbtp66
.