((iwxpy.utils.puid_map
TwoWayDict
p0
(dp1
S'_reversed'
p2
(dp3
V267b3f53
p4
V@@71979c42b82d715f36e840375c16ed2de9282a43194ba5bd2658fbd5100f74c2
p5
sV05181261
p6
V@d29f95327ac250c63b1f5f9fe9147a2ea0602fbab63679e4cc1f04ed3aedde2c
p7
sVd4a36180
p8
V@22ec7cc78fd1f3598ec5b75d67f0cad908693cadbe1d2c312b381dc0cf43b7d8
p9
sVcf333522
p10
V@f695439bc7108f0cc2074de8395d1697fa1704385b417ebf85fd0f6def7109ed
p11
sVc8d8d8ef
p12
V@f26a645e805d92568c191c602d088d5c
p13
sV68575cd7
p14
V@c7bb3b5b2c76898bedad8adeb8779645eff8892957f9ca6f6627c4a568575cd7
p15
sV58a5d145
p16
V@09eeac47da2bc9c3ceddd3571f07a9bf515da9e359eed125ca6965b058a5d145
p17
sVc421032f
p18
V@4f91f5f94f820bdfb85a4cb47e8c5d7a74b855674c3902c1032272bec421032f
p19
sV48a0b2aa
p20
V@@5d3a9665e444ab7b0330fca94dff0e4684470ddaec01112bffb483e8ba42c686
p21
sVf370d88d
p22
V@@710fd8da77bc7cfd4056a479d9f8801ada5d7a971a03e2c103f152b9b6ce7461
p23
ssS'data'
p24
(dp25
g21
g20
sg17
g16
sg9
g8
sg15
g14
sg19
g18
sg7
g6
sg11
g10
sg23
g22
sg13
g12
sg5
g4
ssb(iwxpy.utils.puid_map
TwoWayDict
p26
(dp27
g2
(dp28
g10
I164115627
ssg24
(dp29
I164115627
g10
ssb(iwxpy.utils.puid_map
TwoWayDict
p30
(dp31
g2
(dp32
g12
V\u5f20\u4e9a\u661f
p33
ssg24
(dp34
g33
g12
ssb(iwxpy.utils.puid_map
TwoWayDict
p35
(dp36
g2
(dp37
g4
(V\u6d4b\u8bd5\u7fa4( \u2022\u0e34_\u2022 \u0e34)
p38
NNNtp39
sg6
(V\u9b3c\u513f\u005c
p40
I1
V\u6cb3\u5317
p41
V\u77f3\u5bb6\u5e84
p42
tp43
sg8
(V\u6668
p44
I1
V\u6cb3\u5317
p45
V\u77f3\u5bb6\u5e84
p46
tp47
sg10
(V\u77f3\u6cab\u6cab
p48
I0
S''
p49
g49
tp50
sg12
(VXerxes\U0001f31f
p51
I1
V\u6cb3\u5357
p52
V\u90d1\u5dde
p53
tp54
sg14
(V\U0001f60f
p55
NNNtp56
sg16
(V\u5416~\u8d5e
p57
NNNtp58
sg18
(V\u5c0f\u73c2
p59
NNNtp60
sg20
(V\u6d4b\u8bd5\u7fa42
p61
NNNtp62
sg22
(Vtestwx
p63
NNNtp64
ssg24
(dp65
g50
g10
sg54
g12
sg60
g18
sg56
g14
sg58
g16
sg43
g6
sg64
g22
sg47
g8
sg62
g20
sg39
g4
ssbtp66
.