((iwxpy.utils.puid_map
TwoWayDict
p0
(dp1
S'_reversed'
p2
(dp3
Vc428361e
p4
V@@849c20c20a42b0549deb05421b455508d0f92c46ffd0797cf07b9e2dc428361e
p5
sVb1073323
p6
V@3898393994d1d30b27acf8781f202e3e8f7d417c6afc095aaf83d1f2b1073323
p7
sVa131af3f
p8
V@e2ce978e179f5542b753e530fb6b8947dea98d34fda0b2f8b4463b26041b26d7
p9
sV03b687e2
p10
V@@f7187e7df927728577a0fee5e946019d06d8e43bc95a13152cff421903b687e2
p11
sV958008e2
p12
V@d68cb2eb74ac5d877e5e116fad524d55d2c8f2ff5576c83dd540d28c958008e2
p13
sVf0bb3750
p14
V@@7f14f5ae25394fd8eacb3d898cb2f0a65afdadb0fff47d57f23a099ff0bb3750
p15
sV8dd525db
p16
V@65aa37fa9e851c4b720030948dd525db
p17
ssS'data'
p18
(dp19
g17
g16
sg11
g10
sg15
g14
sg7
g6
sg9
g8
sg13
g12
sg5
g4
ssb(iwxpy.utils.puid_map
TwoWayDict
p20
(dp21
g2
(dp22
g8
I164115627
ssg18
(dp23
I164115627
g8
ssb(iwxpy.utils.puid_map
TwoWayDict
p24
(dp25
g2
(dp26
g16
V\u5f20\u4e9a\u661f
p27
ssg18
(dp28
g27
g16
ssb(iwxpy.utils.puid_map
TwoWayDict
p29
(dp30
g2
(dp31
g4
(V\u6d4b\u8bd5\u7fa4( \u2022\u0e34_\u2022 \u0e34)
p32
NNNtp33
sg6
(V\u6668
p34
I1
V\u6cb3\u5317
p35
V\u77f3\u5bb6\u5e84
p36
tp37
sg8
(V\u77f3\u6cab\u6cab
p38
I0
S''
p39
g39
tp40
sg10
(Vtestwx
p41
NNNtp42
sg12
(V\u9b3c\u513f\u005c
p43
I1
V\u6cb3\u5317
p44
V\u77f3\u5bb6\u5e84
p45
tp46
sg14
(V\u6d4b\u8bd5\u7fa42
p47
NNNtp48
sg16
(VXerxes\U0001f31f
p49
I1
V\u6cb3\u5357
p50
V\u90d1\u5dde
p51
tp52
ssg18
(dp53
g40
g8
sg52
g16
sg46
g12
sg42
g10
sg37
g6
sg48
g14
sg33
g4
ssbtp54
.