((iwxpy.utils.puid_map
TwoWayDict
p0
(dp1
S'_reversed'
p2
(dp3
V4de0ce06
p4
V@8701b314907e36ddfa658693277e6a246935732dda48233b3ecdfa211e5124e3
p5
sVa07980db
p6
V@@8a7c7e1ffbd32cc1db3c56b549630377003e2b3ec726ee25a11174d9a07980db
p7
sVb6dff7b0
p8
V@d64371e520257422fc494b9cff0f22b439bdf81fa74cbc5d7d347b0eb6dff7b0
p9
ssS'data'
p10
(dp11
g5
g4
sg7
g6
sg9
g8
ssb(iwxpy.utils.puid_map
TwoWayDict
p12
(dp13
g2
(dp14
g4
I452533314
ssg10
(dp15
I452533314
g4
ssb(iwxpy.utils.puid_map
TwoWayDict
p16
(dp17
g2
(dp18
sg10
(dp19
sb(iwxpy.utils.puid_map
TwoWayDict
p20
(dp21
g2
(dp22
g4
(V\u5c0f\u73c2
p23
I2
S''
p24
g24
tp25
sg6
(V\u5fae\u4fe1\u865a\u62df\u4eba\u72b6\u51b5\u76d1\u7ba1\u7fa4
p26
NNNtp27
sg8
(V\u97e9\u68a6\u6210
p28
NNNtp29
ssg10
(dp30
g27
g6
sg25
g4
sg29
g8
ssbtp31
.