(dp0
S'qq'
p1
S'2968244798'
p2
sS'psessionid'
p3
S'8368046764001d636f6e6e7365727665725f77656271714031302e3133332e34312e383400001ad00000066b026e040015808a206d0000000a406172314338344a69526d0000002859185d94e66218548d1ecb1a12513c86126b3afb97a3c2955b1070324790733ddb059ab166de6857'
p4
sS'hash'
p5
S'54F554A8079D0375'
p6
sS'dbbasename'
p7
S'2017-12-11-11-20-39-2968244798-contact.db'
p8
sS'lastSendTime'
p9
I0
sS'msgId'
p10
I6000000
sS'bkn'
p11
I1394255168
sS'urlPtwebqq'
p12
S'http://ptlogin2.web2.qq.com/check_sig?pttype=1&uin=2968244798&service=ptqrlogin&nodirect=0&ptsigx=cb68233908015b8dd054f3cfd683493a10c00184bc7c2754b6b12a235eb808f0beacbc3b83634edb4ed3c66fab11daa5d8b28169adeb91a412e6595446d27c44&s_url=http%3A%2F%2Fw.qq.com%2Fproxy.html%3Flogin2qq%3D1%26webqq_type%3D10&f_url=&ptlang=2052&ptredirect=100&aid=501004106&daid=164&j_later=0&low_login_hour=0&regmaster=0&pt_login_type=3&pt_aid=0&pt_aaid=16&pt_light=0&pt_3rd_aid=0'
p13
sS'clientid'
p14
I53999199
sS'uin'
p15
I2968244798
sS'nick'
p16
S'\xe9\x9d\x99'
p17
sS'vfwebqq'
p18
S'75079f22081f101c41fbec5ca0832771fa22c45f750549b06b2d6a1c90da7aa0451ca15ec4e68c8d'
p19
sS'session'
p20
ccopy_reg
_reconstructor
p21
(crequests.sessions
Session
p22
c__builtin__
object
p23
Ntp24
Rp25
(dp26
S'cookies'
p27
g21
(crequests.cookies
RequestsCookieJar
p28
g23
Ntp29
Rp30
(dp31
S'_now'
p32
I1512962440
sS'_policy'
p33
(icookielib
DefaultCookiePolicy
p34
(dp35
S'strict_rfc2965_unverifiable'
p36
I01
sS'strict_ns_domain'
p37
I0
sS'_allowed_domains'
p38
NsS'rfc2109_as_netscape'
p39
NsS'rfc2965'
p40
I00
sS'strict_domain'
p41
I00
sg32
I1512962440
sS'strict_ns_set_path'
p42
I00
sS'strict_ns_unverifiable'
p43
I00
sS'strict_ns_set_initial_dollar'
p44
I00
sS'hide_cookie2'
p45
I00
sS'_blocked_domains'
p46
(tsS'netscape'
p47
I01
sbsS'_cookies'
p48
(dp49
S''
p50
(dp51
S'/'
p52
(dp53
S'ptcz'
p54
(icookielib
Cookie
p55
(dp56
S'comment'
p57
NsS'domain'
p58
g50
sS'name'
p59
g54
sS'domain_initial_dot'
p60
I00
sS'expires'
p61
NsS'value'
p62
S'ad3bf14f9da2738e09e498bfeb93dd9da7540dea2b7a71acfb97ed4d3da4e277'
p63
sS'domain_specified'
p64
I00
sS'_rest'
p65
(dp66
S'HttpOnly'
p67
NssS'version'
p68
I0
sS'port_specified'
p69
I00
sS'rfc2109'
p70
I00
sS'discard'
p71
I01
sS'path_specified'
p72
I01
sS'path'
p73
g52
sS'port'
p74
NsS'comment_url'
p75
NsS'secure'
p76
I00
sbsS'pgv_pvi'
p77
(icookielib
Cookie
p78
(dp79
g57
Nsg58
g50
sg59
g77
sg60
I00
sg61
Nsg62
S'911366144'
p80
sg64
I00
sg65
(dp81
g67
Nssg68
I0
sg69
I00
sg70
I00
sg71
I01
sg72
I01
sg73
g52
sg74
Nsg75
Nsg76
I00
sbsS'pgv_info'
p82
(icookielib
Cookie
p83
(dp84
g57
Nsg58
g50
sg59
g82
sg60
I00
sg61
Nsg62
S'ssid pgv_pvid=1051433466'
p85
sg64
I00
sg65
(dp86
g67
Nssg68
I0
sg69
I00
sg70
I00
sg71
I01
sg72
I01
sg73
g52
sg74
Nsg75
Nsg76
I00
sbsS'RK'
p87
(icookielib
Cookie
p88
(dp89
g57
Nsg58
g50
sg59
g87
sg60
I00
sg61
Nsg62
S'OfeLBai4FB'
p90
sg64
I00
sg65
(dp91
g67
Nssg68
I0
sg69
I00
sg70
I00
sg71
I01
sg72
I01
sg73
g52
sg74
Nsg75
Nsg76
I00
sbsssS'.ptlogin2.qq.com'
p92
(dp93
g52
(dp94
S'pt_login_sig'
p95
(icookielib
Cookie
p96
(dp97
g57
Nsg58
g92
sg59
g95
sg60
I00
sg61
Nsg62
S'og61NERYSp4GnZw8cX5Ll2cUv-JXCkfl*CgdVjIVuza*6zqiTl07zotrncLMalPc'
p98
sg64
I01
sg65
(dp99
sg68
I0
sg69
I00
sg70
I00
sg71
I01
sg72
I01
sg73
g52
sg74
Nsg75
Nsg76
I00
sbsS'uikey'
p100
(icookielib
Cookie
p101
(dp102
g57
Nsg58
S'.ptlogin2.qq.com'
p103
sg59
g100
sg60
I00
sg61
Nsg62
S'182ad69a02466a4f984ee624d4236d72be06dbad32a1651dd76ba37f75a98df6'
p104
sg64
I01
sg65
(dp105
sg68
I0
sg69
I00
sg70
I00
sg71
I01
sg72
I01
sg73
g52
sg74
Nsg75
Nsg76
I00
sbsS'qrsig'
p106
(icookielib
Cookie
p107
(dp108
g57
Nsg58
S'.ptlogin2.qq.com'
p109
sg59
g106
sg60
I00
sg61
Nsg62
S'ycyxtmTTwEadRHOFQsM267dObssTaAJjHpoa33PZtvJtcfrlSTmNAordIc*aQz3L'
p110
sg64
I01
sg65
(dp111
sg68
I0
sg69
I00
sg70
I00
sg71
I01
sg72
I01
sg73
g52
sg74
Nsg75
Nsg76
I00
sbsS'pt_serverip'
p112
(icookielib
Cookie
p113
(dp114
g57
Nsg58
S'.ptlogin2.qq.com'
p115
sg59
g112
sg60
I00
sg61
Nsg62
S'92350abf0e2f47e4'
p116
sg64
I01
sg65
(dp117
sg68
I0
sg69
I00
sg70
I00
sg71
I01
sg72
I01
sg73
g52
sg74
Nsg75
Nsg76
I00
sbsS'supertoken'
p118
(icookielib
Cookie
p119
(dp120
g57
Nsg58
S'.ptlogin2.qq.com'
p121
sg59
g118
sg60
I00
sg61
Nsg62
S'1350967390'
p122
sg64
I01
sg65
(dp123
sg68
I0
sg69
I00
sg70
I00
sg71
I01
sg72
I01
sg73
g52
sg74
Nsg75
Nsg76
I00
sbsS'pt_recent_uins'
p124
(icookielib
Cookie
p125
(dp126
g57
Nsg58
S'.ptlogin2.qq.com'
p127
sg59
g124
sg60
I00
sg61
I1515554439
sg62
S'857814758b9b5ae67f1fba4dfdea18a2c096771a2c69bd99b7353fbce328a23bf11d85f9db675e7b9a48a5db77bc8a04d1384245d70dd0c2'
p128
sg64
I01
sg65
(dp129
S'HttpOnly'
p130
Nssg68
I0
sg69
I00
sg70
I00
sg71
I00
sg72
I01
sg73
g52
sg74
Nsg75
Nsg76
I00
sbsS'ETK'
p131
(icookielib
Cookie
p132
(dp133
g57
Nsg58
S'.ptlogin2.qq.com'
p134
sg59
g131
sg60
I00
sg61
Nsg62
g50
sg64
I01
sg65
(dp135
sg68
I0
sg69
I00
sg70
I00
sg71
I01
sg72
I01
sg73
g52
sg74
Nsg75
Nsg76
I00
sbsS'pt_clientip'
p136
(icookielib
Cookie
p137
(dp138
g57
Nsg58
S'.ptlogin2.qq.com'
p139
sg59
g136
sg60
I00
sg61
Nsg62
S'33c16a272991ba3a'
p140
sg64
I01
sg65
(dp141
sg68
I0
sg69
I00
sg70
I00
sg71
I01
sg72
I01
sg73
g52
sg74
Nsg75
Nsg76
I00
sbsS'ptnick_2968244798'
p142
(icookielib
Cookie
p143
(dp144
g57
Nsg58
S'.ptlogin2.qq.com'
p145
sg59
g142
sg60
I00
sg61
Nsg62
S'e99d99'
p146
sg64
I01
sg65
(dp147
sg68
I0
sg69
I00
sg70
I00
sg71
I01
sg72
I01
sg73
g52
sg74
Nsg75
Nsg76
I00
sbsS'superkey'
p148
(icookielib
Cookie
p149
(dp150
g57
Nsg58
S'.ptlogin2.qq.com'
p151
sg59
g148
sg60
I00
sg61
Nsg62
S'6XG-uZw-hHhGjAcmDmBMEm1xH*pAF*Wb9isWGsPFzZY_'
p152
sg64
I01
sg65
(dp153
S'HttpOnly'
p154
Nssg68
I0
sg69
I00
sg70
I00
sg71
I01
sg72
I01
sg73
g52
sg74
Nsg75
Nsg76
I00
sbsS'superuin'
p155
(icookielib
Cookie
p156
(dp157
g57
Nsg58
S'.ptlogin2.qq.com'
p158
sg59
g155
sg60
I00
sg61
Nsg62
S'o2968244798'
p159
sg64
I01
sg65
(dp160
sg68
I0
sg69
I00
sg70
I00
sg71
I01
sg72
I01
sg73
g52
sg74
Nsg75
Nsg76
I00
sbsssS'.ui.ptlogin2.qq.com'
p161
(dp162
g52
(dp163
S'pt_user_id'
p164
(icookielib
Cookie
p165
(dp166
g57
Nsg58
g161
sg59
g164
sg60
I00
sg61
I1828322418
sg62
S'17115426871258071480'
p167
sg64
I01
sg65
(dp168
sg68
I0
sg69
I00
sg70
I00
sg71
I00
sg72
I01
sg73
g52
sg74
Nsg75
Nsg76
I00
sbsS'login_param'
p169
(icookielib
Cookie
p170
(dp171
g57
Nsg58
S'.ui.ptlogin2.qq.com'
p172
sg59
g169
sg60
I00
sg61
Nsg62
S'daid%3D164%26target%3Dself%26style%3D16%26mibao_css%3Dm_webqq%26appid%3D501004106%26enable_qlogin%3D0%26no_verifyimg%3D1%26s_url%3Dhttp%253A%252F%252Fw.qq.com%252Fproxy.html%26f_url%3Dloginerroralert%26strong_login%3D1%26login_state%3D10%26t%3D20131024001'
p173
sg64
I01
sg65
(dp174
sg68
I0
sg69
I00
sg70
I00
sg71
I01
sg72
I01
sg73
g52
sg74
Nsg75
Nsg76
I00
sbsS'ptui_identifier'
p175
(icookielib
Cookie
p176
(dp177
g57
Nsg58
S'.ui.ptlogin2.qq.com'
p178
sg59
g175
sg60
I00
sg61
Nsg62
S'000D5997070361168A9BB16F8637EBC82FA63CCED748750E11B0213A'
p179
sg64
I01
sg65
(dp180
sg68
I0
sg69
I00
sg70
I00
sg71
I01
sg72
I01
sg73
g52
sg74
Nsg75
Nsg76
I00
sbsssS'.qq.com'
p181
(dp182
g52
(dp183
S'ptisp'
p184
(icookielib
Cookie
p185
(dp186
g57
Nsg58
S'.qq.com'
p187
sg59
g184
sg60
I00
sg61
Nsg62
S'ctc'
p188
sg64
I01
sg65
(dp189
sg68
I0
sg69
I00
sg70
I00
sg71
I01
sg72
I01
sg73
g52
sg74
Nsg75
Nsg76
I00
sbsS'skey'
p190
(icookielib
Cookie
p191
(dp192
g57
Nsg58
S'.qq.com'
p193
sg59
S'skey'
p194
sg60
I00
sg61
Nsg62
S'@ckPOy2L5B'
p195
sg64
I01
sg65
(dp196
sg68
I0
sg69
I00
sg70
I00
sg71
I01
sg72
I01
sg73
g52
sg74
Nsg75
Nsg76
I00
sbsS'uin'
p197
(icookielib
Cookie
p198
(dp199
g57
Nsg58
S'.qq.com'
p200
sg59
S'uin'
p201
sg60
I00
sg61
Nsg62
S'o2968244798'
p202
sg64
I01
sg65
(dp203
sg68
I0
sg69
I00
sg70
I00
sg71
I01
sg72
I01
sg73
g52
sg74
Nsg75
Nsg76
I00
sbsS'ptcz'
p204
(icookielib
Cookie
p205
(dp206
g57
Nsg58
S'.qq.com'
p207
sg59
g204
sg60
I00
sg61
I2147483647
sg62
S'ad3bf14f9da2738e09e498bfeb93dd9da7540dea2b7a71acfb97ed4d3da4e277'
p208
sg64
I01
sg65
(dp209
sg68
I0
sg69
I00
sg70
I00
sg71
I00
sg72
I01
sg73
g52
sg74
Nsg75
Nsg76
I00
sbsS'pt2gguin'
p210
(icookielib
Cookie
p211
(dp212
g57
Nsg58
S'.qq.com'
p213
sg59
S'pt2gguin'
p214
sg60
I00
sg61
I2147483647
sg62
S'o2968244798'
p215
sg64
I01
sg65
(dp216
sg68
I0
sg69
I00
sg70
I00
sg71
I00
sg72
I01
sg73
g52
sg74
Nsg75
Nsg76
I00
sbsS'ptwebqq'
p217
(icookielib
Cookie
p218
(dp219
g57
Nsg58
S'.qq.com'
p220
sg59
g217
sg60
I00
sg61
Nsg62
S'063024f09ea25358b3f03bf35b41454e21eb190589ef1f75247d20d2adf9a145'
p221
sg64
I01
sg65
(dp222
sg68
I0
sg69
I00
sg70
I00
sg71
I01
sg72
I01
sg73
g52
sg74
Nsg75
Nsg76
I00
sbsssS'.web2.qq.com'
p223
(dp224
g52
(dp225
S'p_uin'
p226
(icookielib
Cookie
p227
(dp228
g57
Nsg58
g223
sg59
g226
sg60
I00
sg61
Nsg62
S'o2968244798'
p229
sg64
I01
sg65
(dp230
sg68
I0
sg69
I00
sg70
I00
sg71
I01
sg72
I01
sg73
g52
sg74
Nsg75
Nsg76
I00
sbsS'p_skey'
p231
(icookielib
Cookie
p232
(dp233
g57
Nsg58
S'.web2.qq.com'
p234
sg59
g231
sg60
I00
sg61
Nsg62
S'GGctlONTBVqgmaBti4JC9nJcVA1OEyXsoEhAe7KqrPc_'
p235
sg64
I01
sg65
(dp236
sg68
I0
sg69
I00
sg70
I00
sg71
I01
sg72
I01
sg73
g52
sg74
Nsg75
Nsg76
I00
sbsS'pt4_token'
p237
(icookielib
Cookie
p238
(dp239
g57
Nsg58
S'.web2.qq.com'
p240
sg59
g237
sg60
I00
sg61
Nsg62
S'RJ3zYtKBbWvMlIAyprsp3nZ9km0MWME5eXkmMxl7atU_'
p241
sg64
I01
sg65
(dp242
sg68
I0
sg69
I00
sg70
I00
sg71
I01
sg72
I01
sg73
g52
sg74
Nsg75
Nsg76
I00
sbssssbsS'stream'
p243
I00
sS'hooks'
p244
(dp245
S'response'
p246
(lp247
ssS'auth'
p248
NsS'trust_env'
p249
I01
sS'headers'
p250
g21
(crequests.structures
CaseInsensitiveDict
p251
g23
Ntp252
Rp253
(dp254
S'_store'
p255
curllib3.packages.ordered_dict
OrderedDict
p256
((lp257
(lp258
S'connection'
p259
a(S'Connection'
p260
S'keep-alive'
p261
tp262
aa(lp263
S'accept-encoding'
p264
a(S'Accept-Encoding'
p265
S'gzip, deflate'
p266
tp267
aa(lp268
S'accept'
p269
a(S'Accept'
p270
S'*/*'
p271
tp272
aa(lp273
S'user-agent'
p274
a(S'User-Agent'
p275
S'Mozilla/5.0 (Macintosh; Intel Mac OS X 10.9; rv:27.0) Gecko/20100101 Firefox/27.0'
p276
tp277
aa(lp278
S'content-type'
p279
a(S'Content-Type'
p280
S'application/x-www-form-urlencoded; charset=UTF-8'
p281
tp282
aa(lp283
S'referer'
p284
a(S'Referer'
p285
S'http://d1.web2.qq.com/proxy.html?v=20151105001&callback=1&id=2'
p286
tp287
aa(lp288
S'origin'
p289
a(S'Origin'
p290
S'http://d1.web2.qq.com'
p291
tp292
aatp293
Rp294
sbsS'cert'
p295
NsS'params'
p296
(dp297
sS'prefetch'
p298
NsS'verify'
p299
I01
sS'proxies'
p300
(dp301
sS'adapters'
p302
g256
((lp303
(lp304
S'https://'
p305
ag21
(crequests.adapters
HTTPAdapter
p306
g23
Ntp307
Rp308
(dp309
S'_pool_block'
p310
I00
sS'_pool_maxsize'
p311
I10
sS'max_retries'
p312
g21
(curllib3.util.retry
Retry
p313
g23
Ntp314
Rp315
(dp316
S'status'
p317
NsS'redirect'
p318
NsS'read'
p319
I00
sS'backoff_factor'
p320
I0
sS'respect_retry_after_header'
p321
I01
sS'history'
p322
(tsS'raise_on_status'
p323
I01
sS'connect'
p324
NsS'status_forcelist'
p325
c__builtin__
set
p326
((lp327
tp328
Rp329
sS'total'
p330
I0
sS'raise_on_redirect'
p331
I01
sS'method_whitelist'
p332
c__builtin__
frozenset
p333
((lp334
S'HEAD'
p335
aS'TRACE'
p336
aS'GET'
p337
aS'PUT'
p338
aS'OPTIONS'
p339
aS'DELETE'
p340
atp341
Rp342
sbsS'config'
p343
(dp344
sS'_pool_connections'
p345
I10
sbaa(lp346
S'http://'
p347
ag21
(g306
g23
Ntp348
Rp349
(dp350
g310
I00
sg311
I10
sg312
g21
(g313
g23
Ntp351
Rp352
(dp353
g317
Nsg318
Nsg319
I00
sg320
I0
sg321
I01
sg322
(tsg323
I01
sg324
Nsg325
g326
((lp354
tp355
Rp356
sg330
I0
sg331
I01
sg332
g342
sbsg343
(dp357
sg345
I10
sbaatp358
Rp359
sS'max_redirects'
p360
I30
sbsS'ptwebqq'
p361
g221
sS'dbname'
p362
S'/home/ubuntu8/yumingming/xnr1/xnr/static/images/QQ/1035/2017-12-11-11-20-39-2968244798-contact.db'
p363
s.