(dp0
S'qq'
p1
S'1965056593'
p2
sS'psessionid'
p3
S'8368046764001d636f6e6e7365727665725f77656271714031302e3133332e34312e383400001ad00000066b026e040015808a206d0000000a406172314338344a69526d0000002859185d94e66218548d1ecb1a12513c86126b3afb97a3c2955b1070324790733ddb059ab166de6857'
p4
sS'hash'
p5
S'5A305C63032D051A'
p6
sS'dbbasename'
p7
S'2017-09-28-15-09-57-1965056593-contact.db'
p8
sS'lastSendTime'
p9
I0
sS'msgId'
p10
I6000000
sS'bkn'
p11
I285850887
sS'urlPtwebqq'
p12
S'http://ptlogin2.web2.qq.com/check_sig?pttype=1&uin=1965056593&service=ptqrlogin&nodirect=0&ptsigx=5732421918ca38f2f19600db776bed4af470851ddc6496395fc170ecd9e9fd64d07fa3397c5e71ee69c2aeb7fdf930eb5c2c2d638c40b4b15fe494f36d82af41&s_url=http%3A%2F%2Fw.qq.com%2Fproxy.html%3Flogin2qq%3D1%26webqq_type%3D10&f_url=&ptlang=2052&ptredirect=100&aid=501004106&daid=164&j_later=0&low_login_hour=0&regmaster=0&pt_login_type=3&pt_aid=0&pt_aaid=16&pt_light=0&pt_3rd_aid=0'
p13
sS'clientid'
p14
I53999199
sS'uin'
p15
I1965056593
sS'nick'
p16
S'\xe8\xa2\x81\xe6\x85\xa7\xe8\x8c\xb9'
p17
sS'vfwebqq'
p18
S'cbe11da26cf4e7cf280bc6844a4042cb828a0d4e88dfdb86ecc3544077e7060c62579ea2532a03c9'
p19
sS'session'
p20
ccopy_reg
_reconstructor
p21
(crequests.sessions
Session
p22
c__builtin__
object
p23
Ntp24
Rp25
(dp26
S'cookies'
p27
g21
(crequests.cookies
RequestsCookieJar
p28
g23
Ntp29
Rp30
(dp31
S'_now'
p32
I1506582598
sS'_policy'
p33
(icookielib
DefaultCookiePolicy
p34
(dp35
S'strict_rfc2965_unverifiable'
p36
I01
sS'strict_ns_domain'
p37
I0
sS'_allowed_domains'
p38
NsS'rfc2109_as_netscape'
p39
NsS'rfc2965'
p40
I00
sS'strict_domain'
p41
I00
sg32
I1506582598
sS'strict_ns_set_path'
p42
I00
sS'strict_ns_unverifiable'
p43
I00
sS'strict_ns_set_initial_dollar'
p44
I00
sS'hide_cookie2'
p45
I00
sS'_blocked_domains'
p46
(tsS'netscape'
p47
I01
sbsS'_cookies'
p48
(dp49
S''
p50
(dp51
S'/'
p52
(dp53
S'ptcz'
p54
(icookielib
Cookie
p55
(dp56
S'comment'
p57
NsS'domain'
p58
g50
sS'name'
p59
g54
sS'domain_initial_dot'
p60
I00
sS'expires'
p61
NsS'value'
p62
S'ad3bf14f9da2738e09e498bfeb93dd9da7540dea2b7a71acfb97ed4d3da4e277'
p63
sS'domain_specified'
p64
I00
sS'_rest'
p65
(dp66
S'HttpOnly'
p67
NssS'version'
p68
I0
sS'port_specified'
p69
I00
sS'rfc2109'
p70
I00
sS'discard'
p71
I01
sS'path_specified'
p72
I01
sS'path'
p73
g52
sS'port'
p74
NsS'comment_url'
p75
NsS'secure'
p76
I00
sbsS'pgv_pvi'
p77
(icookielib
Cookie
p78
(dp79
g57
Nsg58
g50
sg59
g77
sg60
I00
sg61
Nsg62
S'911366144'
p80
sg64
I00
sg65
(dp81
g67
Nssg68
I0
sg69
I00
sg70
I00
sg71
I01
sg72
I01
sg73
g52
sg74
Nsg75
Nsg76
I00
sbsS'pgv_info'
p82
(icookielib
Cookie
p83
(dp84
g57
Nsg58
g50
sg59
g82
sg60
I00
sg61
Nsg62
S'ssid pgv_pvid=1051433466'
p85
sg64
I00
sg65
(dp86
g67
Nssg68
I0
sg69
I00
sg70
I00
sg71
I01
sg72
I01
sg73
g52
sg74
Nsg75
Nsg76
I00
sbsS'RK'
p87
(icookielib
Cookie
p88
(dp89
g57
Nsg58
g50
sg59
g87
sg60
I00
sg61
Nsg62
S'OfeLBai4FB'
p90
sg64
I00
sg65
(dp91
g67
Nssg68
I0
sg69
I00
sg70
I00
sg71
I01
sg72
I01
sg73
g52
sg74
Nsg75
Nsg76
I00
sbsssS'.ptlogin2.qq.com'
p92
(dp93
g52
(dp94
S'pt_login_sig'
p95
(icookielib
Cookie
p96
(dp97
g57
Nsg58
g92
sg59
g95
sg60
I00
sg61
Nsg62
S'hoDNTNYS2M6en3ttfm4*GWEoHBBcFgpd-N*DKC-sd4Hk6t4IpoZHEKZ6bpKXaelE'
p98
sg64
I01
sg65
(dp99
sg68
I0
sg69
I00
sg70
I00
sg71
I01
sg72
I01
sg73
g52
sg74
Nsg75
Nsg76
I00
sbsS'qrsig'
p100
(icookielib
Cookie
p101
(dp102
g57
Nsg58
S'.ptlogin2.qq.com'
p103
sg59
S'qrsig'
p104
sg60
I00
sg61
Nsg62
S'-kb0FLmcXiGTD*HT2aS4EhDSGG5p6BHIFMmw9efD58w8sp7iZJhgKgQVLLsDxSWl'
p105
sg64
I01
sg65
(dp106
sg68
I0
sg69
I00
sg70
I00
sg71
I01
sg72
I01
sg73
g52
sg74
Nsg75
Nsg76
I00
sbsS'ptnick_1965056593'
p107
(icookielib
Cookie
p108
(dp109
g57
Nsg58
S'.ptlogin2.qq.com'
p110
sg59
g107
sg60
I00
sg61
Nsg62
S'e8a281e685a7e88cb9'
p111
sg64
I01
sg65
(dp112
sg68
I0
sg69
I00
sg70
I00
sg71
I01
sg72
I01
sg73
g52
sg74
Nsg75
Nsg76
I00
sbsS'pt_serverip'
p113
(icookielib
Cookie
p114
(dp115
g57
Nsg58
S'.ptlogin2.qq.com'
p116
sg59
g113
sg60
I00
sg61
Nsg62
S'd4d30aa8825b9e6c'
p117
sg64
I01
sg65
(dp118
sg68
I0
sg69
I00
sg70
I00
sg71
I01
sg72
I01
sg73
g52
sg74
Nsg75
Nsg76
I00
sbsS'supertoken'
p119
(icookielib
Cookie
p120
(dp121
g57
Nsg58
S'.ptlogin2.qq.com'
p122
sg59
g119
sg60
I00
sg61
Nsg62
S'1362820915'
p123
sg64
I01
sg65
(dp124
sg68
I0
sg69
I00
sg70
I00
sg71
I01
sg72
I01
sg73
g52
sg74
Nsg75
Nsg76
I00
sbsS'pt_recent_uins'
p125
(icookielib
Cookie
p126
(dp127
g57
Nsg58
S'.ptlogin2.qq.com'
p128
sg59
g125
sg60
I00
sg61
I1509174597
sg62
S'e6380ad852e47bb4636fcd2790bd2b737fb7f377a600019d9030337524ab46f16f8e258e63ef40d26018a71c9ddc13431fec9f8286abd449'
p129
sg64
I01
sg65
(dp130
S'HttpOnly'
p131
Nssg68
I0
sg69
I00
sg70
I00
sg71
I00
sg72
I01
sg73
g52
sg74
Nsg75
Nsg76
I00
sbsS'ETK'
p132
(icookielib
Cookie
p133
(dp134
g57
Nsg58
S'.ptlogin2.qq.com'
p135
sg59
g132
sg60
I00
sg61
Nsg62
g50
sg64
I01
sg65
(dp136
sg68
I0
sg69
I00
sg70
I00
sg71
I01
sg72
I01
sg73
g52
sg74
Nsg75
Nsg76
I00
sbsS'pt_clientip'
p137
(icookielib
Cookie
p138
(dp139
g57
Nsg58
S'.ptlogin2.qq.com'
p140
sg59
g137
sg60
I00
sg61
Nsg62
S'e1586a272991ea8a'
p141
sg64
I01
sg65
(dp142
sg68
I0
sg69
I00
sg70
I00
sg71
I01
sg72
I01
sg73
g52
sg74
Nsg75
Nsg76
I00
sbsS'superkey'
p143
(icookielib
Cookie
p144
(dp145
g57
Nsg58
S'.ptlogin2.qq.com'
p146
sg59
g143
sg60
I00
sg61
Nsg62
S'FnLQbn*9fmpMJ17I4K5vzozDwhNC1xBdTQCBplyeO5M_'
p147
sg64
I01
sg65
(dp148
S'HttpOnly'
p149
Nssg68
I0
sg69
I00
sg70
I00
sg71
I01
sg72
I01
sg73
g52
sg74
Nsg75
Nsg76
I00
sbsS'superuin'
p150
(icookielib
Cookie
p151
(dp152
g57
Nsg58
S'.ptlogin2.qq.com'
p153
sg59
g150
sg60
I00
sg61
Nsg62
S'o1965056593'
p154
sg64
I01
sg65
(dp155
sg68
I0
sg69
I00
sg70
I00
sg71
I01
sg72
I01
sg73
g52
sg74
Nsg75
Nsg76
I00
sbsssS'.ui.ptlogin2.qq.com'
p156
(dp157
g52
(dp158
S'pt_user_id'
p159
(icookielib
Cookie
p160
(dp161
g57
Nsg58
g156
sg59
g159
sg60
I00
sg61
I1821941998
sg62
S'3905534654728753476'
p162
sg64
I01
sg65
(dp163
sg68
I0
sg69
I00
sg70
I00
sg71
I00
sg72
I01
sg73
g52
sg74
Nsg75
Nsg76
I00
sbsS'ptui_identifier'
p164
(icookielib
Cookie
p165
(dp166
g57
Nsg58
S'.ui.ptlogin2.qq.com'
p167
sg59
g164
sg60
I00
sg61
Nsg62
S'000DEA4E8BBD0C989A438FCA02FB865DA8642B1B395C98ECF0441183'
p168
sg64
I01
sg65
(dp169
sg68
I0
sg69
I00
sg70
I00
sg71
I01
sg72
I01
sg73
g52
sg74
Nsg75
Nsg76
I00
sbsssS'.qq.com'
p170
(dp171
g52
(dp172
S'skey'
p173
(icookielib
Cookie
p174
(dp175
g57
Nsg58
S'.qq.com'
p176
sg59
S'skey'
p177
sg60
I00
sg61
Nsg62
S'@4cGgrw5yf'
p178
sg64
I01
sg65
(dp179
sg68
I0
sg69
I00
sg70
I00
sg71
I01
sg72
I01
sg73
g52
sg74
Nsg75
Nsg76
I00
sbsS'ptisp'
p180
(icookielib
Cookie
p181
(dp182
g57
Nsg58
S'.qq.com'
p183
sg59
g180
sg60
I00
sg61
Nsg62
S'ctc'
p184
sg64
I01
sg65
(dp185
sg68
I0
sg69
I00
sg70
I00
sg71
I01
sg72
I01
sg73
g52
sg74
Nsg75
Nsg76
I00
sbsS'ptwebqq'
p186
(icookielib
Cookie
p187
(dp188
g57
Nsg58
S'.qq.com'
p189
sg59
g186
sg60
I00
sg61
Nsg62
S'5d7abf07b4bd499d8e3dfb9159df3751e074b746f1085a246609a8701752147d'
p190
sg64
I01
sg65
(dp191
sg68
I0
sg69
I00
sg70
I00
sg71
I01
sg72
I01
sg73
g52
sg74
Nsg75
Nsg76
I00
sbsS'pt2gguin'
p192
(icookielib
Cookie
p193
(dp194
g57
Nsg58
S'.qq.com'
p195
sg59
S'pt2gguin'
p196
sg60
I00
sg61
I1577923200
sg62
S'o1965056593'
p197
sg64
I01
sg65
(dp198
sg68
I0
sg69
I00
sg70
I00
sg71
I00
sg72
I01
sg73
g52
sg74
Nsg75
Nsg76
I00
sbsS'uin'
p199
(icookielib
Cookie
p200
(dp201
g57
Nsg58
S'.qq.com'
p202
sg59
S'uin'
p203
sg60
I00
sg61
Nsg62
S'o1965056593'
p204
sg64
I01
sg65
(dp205
sg68
I0
sg69
I00
sg70
I00
sg71
I01
sg72
I01
sg73
g52
sg74
Nsg75
Nsg76
I00
sbsssS'.web2.qq.com'
p206
(dp207
g52
(dp208
S'p_uin'
p209
(icookielib
Cookie
p210
(dp211
g57
Nsg58
g206
sg59
g209
sg60
I00
sg61
Nsg62
S'o1965056593'
p212
sg64
I01
sg65
(dp213
sg68
I0
sg69
I00
sg70
I00
sg71
I01
sg72
I01
sg73
g52
sg74
Nsg75
Nsg76
I00
sbsS'p_skey'
p214
(icookielib
Cookie
p215
(dp216
g57
Nsg58
S'.web2.qq.com'
p217
sg59
g214
sg60
I00
sg61
Nsg62
S'Blssh7WU8cINsop7VrftfCZwUuF*8T0lv8zPL7ewaa8_'
p218
sg64
I01
sg65
(dp219
sg68
I0
sg69
I00
sg70
I00
sg71
I01
sg72
I01
sg73
g52
sg74
Nsg75
Nsg76
I00
sbsS'pt4_token'
p220
(icookielib
Cookie
p221
(dp222
g57
Nsg58
S'.web2.qq.com'
p223
sg59
g220
sg60
I00
sg61
Nsg62
S'LMsAdkSQiyogKiCIsfJUoWWpVQj1Pl1HASe7meIs9mI_'
p224
sg64
I01
sg65
(dp225
sg68
I0
sg69
I00
sg70
I00
sg71
I01
sg72
I01
sg73
g52
sg74
Nsg75
Nsg76
I00
sbssssbsS'stream'
p226
I00
sS'hooks'
p227
(dp228
S'response'
p229
(lp230
ssS'redirect_cache'
p231
(dp232
sS'auth'
p233
NsS'trust_env'
p234
I01
sS'headers'
p235
g21
(crequests.structures
CaseInsensitiveDict
p236
g23
Ntp237
Rp238
(dp239
S'_store'
p240
crequests.packages.urllib3.packages.ordered_dict
OrderedDict
p241
((lp242
(lp243
S'connection'
p244
a(S'Connection'
p245
S'keep-alive'
p246
tp247
aa(lp248
S'accept-encoding'
p249
a(S'Accept-Encoding'
p250
S'gzip, deflate'
p251
tp252
aa(lp253
S'accept'
p254
a(S'Accept'
p255
S'*/*'
p256
tp257
aa(lp258
S'user-agent'
p259
a(S'User-Agent'
p260
S'Mozilla/5.0 (Macintosh; Intel Mac OS X 10.9; rv:27.0) Gecko/20100101 Firefox/27.0'
p261
tp262
aa(lp263
S'content-type'
p264
a(S'Content-Type'
p265
S'application/x-www-form-urlencoded; charset=UTF-8'
p266
tp267
aa(lp268
S'referer'
p269
a(S'Referer'
p270
S'http://d1.web2.qq.com/proxy.html?v=20151105001&callback=1&id=2'
p271
tp272
aa(lp273
S'origin'
p274
a(S'Origin'
p275
S'http://d1.web2.qq.com'
p276
tp277
aatp278
Rp279
sbsS'cert'
p280
NsS'params'
p281
(dp282
sS'prefetch'
p283
NsS'verify'
p284
I01
sS'proxies'
p285
(dp286
sS'adapters'
p287
g241
((lp288
(lp289
S'https://'
p290
ag21
(crequests.adapters
HTTPAdapter
p291
g23
Ntp292
Rp293
(dp294
S'_pool_block'
p295
I00
sS'_pool_maxsize'
p296
I10
sS'max_retries'
p297
g21
(crequests.packages.urllib3.util.retry
Retry
p298
g23
Ntp299
Rp300
(dp301
S'redirect'
p302
NsS'read'
p303
I00
sS'backoff_factor'
p304
I0
sS'respect_retry_after_header'
p305
I01
sS'history'
p306
(tsS'raise_on_status'
p307
I01
sS'connect'
p308
NsS'status_forcelist'
p309
c__builtin__
set
p310
((lp311
tp312
Rp313
sS'total'
p314
I0
sS'raise_on_redirect'
p315
I01
sS'method_whitelist'
p316
c__builtin__
frozenset
p317
((lp318
S'HEAD'
p319
aS'TRACE'
p320
aS'GET'
p321
aS'PUT'
p322
aS'OPTIONS'
p323
aS'DELETE'
p324
atp325
Rp326
sbsS'config'
p327
(dp328
sS'_pool_connections'
p329
I10
sbaa(lp330
S'http://'
p331
ag21
(g291
g23
Ntp332
Rp333
(dp334
g295
I00
sg296
I10
sg297
g21
(g298
g23
Ntp335
Rp336
(dp337
g302
Nsg303
I00
sg304
I0
sg305
I01
sg306
(tsg307
I01
sg308
Nsg309
g310
((lp338
tp339
Rp340
sg314
I0
sg315
I01
sg316
g326
sbsg327
(dp341
sg329
I10
sbaatp342
Rp343
sS'max_redirects'
p344
I30
sbsS'ptwebqq'
p345
g190
sS'dbname'
p346
S'/home/ubuntu8/yumingming/xnr1/xnr/static/images/QQ/1027/2017-09-28-15-09-57-1965056593-contact.db'
p347
s.