(dp0
S'qq'
p1
S'929673096'
p2
sS'psessionid'
p3
S'8368046764001d636f6e6e7365727665725f77656271714031302e3133332e34312e383400001ad00000066b026e040015808a206d0000000a406172314338344a69526d0000002859185d94e66218548d1ecb1a12513c86126b3afb97a3c2955b1070324790733ddb059ab166de6857'
p4
sS'hash'
p5
S'5872082A00E00EC3'
p6
sS'dbbasename'
p7
S'2017-10-24-21-07-32-929673096-contact.db'
p8
sS'lastSendTime'
p9
I0
sS'msgId'
p10
I6000000
sS'bkn'
p11
I2123918609
sS'urlPtwebqq'
p12
S'http://ptlogin2.web2.qq.com/check_sig?pttype=1&uin=929673096&service=ptqrlogin&nodirect=0&ptsigx=193af66f3df1470790395eb89d11d7d75d324a0ca0ca2fe5accaf8f1bece08df684b7d038315c33c75e7229bcb7f2b3fdef89f47989d5e50aa62efc03cd11722&s_url=http%3A%2F%2Fw.qq.com%2Fproxy.html%3Flogin2qq%3D1%26webqq_type%3D10&f_url=&ptlang=2052&ptredirect=100&aid=501004106&daid=164&j_later=0&low_login_hour=0&regmaster=0&pt_login_type=3&pt_aid=0&pt_aaid=16&pt_light=0&pt_3rd_aid=0'
p13
sS'clientid'
p14
I53999199
sS'uin'
p15
I929673096
sS'nick'
p16
S'\xf0\x9f\x98\x8d\xe2\x94\x80\xe2\x94\x84\xe2\x94\x88\xe2\x94\x89\xe2\x94\x85\xe2\x94\x81'
p17
sS'vfwebqq'
p18
S'63407564e3c446100f472a968216e29e4120c7305f93baccb5ad60c45634d3a807b32253c0b158e6'
p19
sS'session'
p20
ccopy_reg
_reconstructor
p21
(crequests.sessions
Session
p22
c__builtin__
object
p23
Ntp24
Rp25
(dp26
S'cookies'
p27
g21
(crequests.cookies
RequestsCookieJar
p28
g23
Ntp29
Rp30
(dp31
S'_now'
p32
I1508850453
sS'_policy'
p33
(icookielib
DefaultCookiePolicy
p34
(dp35
S'strict_rfc2965_unverifiable'
p36
I01
sS'strict_ns_domain'
p37
I0
sS'_allowed_domains'
p38
NsS'rfc2109_as_netscape'
p39
NsS'rfc2965'
p40
I00
sS'strict_domain'
p41
I00
sg32
I1508850453
sS'strict_ns_set_path'
p42
I00
sS'strict_ns_unverifiable'
p43
I00
sS'strict_ns_set_initial_dollar'
p44
I00
sS'hide_cookie2'
p45
I00
sS'_blocked_domains'
p46
(tsS'netscape'
p47
I01
sbsS'_cookies'
p48
(dp49
S''
p50
(dp51
S'/'
p52
(dp53
S'ptcz'
p54
(icookielib
Cookie
p55
(dp56
S'comment'
p57
NsS'domain'
p58
g50
sS'name'
p59
g54
sS'domain_initial_dot'
p60
I00
sS'expires'
p61
NsS'value'
p62
S'ad3bf14f9da2738e09e498bfeb93dd9da7540dea2b7a71acfb97ed4d3da4e277'
p63
sS'domain_specified'
p64
I00
sS'_rest'
p65
(dp66
S'HttpOnly'
p67
NssS'version'
p68
I0
sS'port_specified'
p69
I00
sS'rfc2109'
p70
I00
sS'discard'
p71
I01
sS'path_specified'
p72
I01
sS'path'
p73
g52
sS'port'
p74
NsS'comment_url'
p75
NsS'secure'
p76
I00
sbsS'pgv_pvi'
p77
(icookielib
Cookie
p78
(dp79
g57
Nsg58
g50
sg59
g77
sg60
I00
sg61
Nsg62
S'911366144'
p80
sg64
I00
sg65
(dp81
g67
Nssg68
I0
sg69
I00
sg70
I00
sg71
I01
sg72
I01
sg73
g52
sg74
Nsg75
Nsg76
I00
sbsS'pgv_info'
p82
(icookielib
Cookie
p83
(dp84
g57
Nsg58
g50
sg59
g82
sg60
I00
sg61
Nsg62
S'ssid pgv_pvid=1051433466'
p85
sg64
I00
sg65
(dp86
g67
Nssg68
I0
sg69
I00
sg70
I00
sg71
I01
sg72
I01
sg73
g52
sg74
Nsg75
Nsg76
I00
sbsS'RK'
p87
(icookielib
Cookie
p88
(dp89
g57
Nsg58
g50
sg59
g87
sg60
I00
sg61
Nsg62
S'OfeLBai4FB'
p90
sg64
I00
sg65
(dp91
g67
Nssg68
I0
sg69
I00
sg70
I00
sg71
I01
sg72
I01
sg73
g52
sg74
Nsg75
Nsg76
I00
sbsssS'.ptlogin2.qq.com'
p92
(dp93
g52
(dp94
S'pt_login_sig'
p95
(icookielib
Cookie
p96
(dp97
g57
Nsg58
g92
sg59
g95
sg60
I00
sg61
Nsg62
S'PcWEW5ZO0VCz9T7Ru2vv01GwV2iRQEjHJoSKaFCikVMwSSq8tDDQJaJLTeUKkM*3'
p98
sg64
I01
sg65
(dp99
sg68
I0
sg69
I00
sg70
I00
sg71
I01
sg72
I01
sg73
g52
sg74
Nsg75
Nsg76
I00
sbsS'qrsig'
p100
(icookielib
Cookie
p101
(dp102
g57
Nsg58
S'.ptlogin2.qq.com'
p103
sg59
g100
sg60
I00
sg61
Nsg62
S'z3sQtyv6qUfaRllXnS0GlcB6*xM72JxapNpfFhJ-RMJTeZNuSotoucT2t2N6boKa'
p104
sg64
I01
sg65
(dp105
sg68
I0
sg69
I00
sg70
I00
sg71
I01
sg72
I01
sg73
g52
sg74
Nsg75
Nsg76
I00
sbsS'pt_serverip'
p106
(icookielib
Cookie
p107
(dp108
g57
Nsg58
S'.ptlogin2.qq.com'
p109
sg59
g106
sg60
I00
sg61
Nsg62
S'a5410af492054e7f'
p110
sg64
I01
sg65
(dp111
sg68
I0
sg69
I00
sg70
I00
sg71
I01
sg72
I01
sg73
g52
sg74
Nsg75
Nsg76
I00
sbsS'supertoken'
p112
(icookielib
Cookie
p113
(dp114
g57
Nsg58
S'.ptlogin2.qq.com'
p115
sg59
g112
sg60
I00
sg61
Nsg62
S'48616180'
p116
sg64
I01
sg65
(dp117
sg68
I0
sg69
I00
sg70
I00
sg71
I01
sg72
I01
sg73
g52
sg74
Nsg75
Nsg76
I00
sbsS'pt_recent_uins'
p118
(icookielib
Cookie
p119
(dp120
g57
Nsg58
S'.ptlogin2.qq.com'
p121
sg59
g118
sg60
I00
sg61
I1511442452
sg62
S'1dd0c3f4a5c405170e8370319317a36cd1893499d6287cdfa3ade22decc415402508841fdfe428b7dfc31c862e4f5b79329ac863c776abc0'
p122
sg64
I01
sg65
(dp123
S'HttpOnly'
p124
Nssg68
I0
sg69
I00
sg70
I00
sg71
I00
sg72
I01
sg73
g52
sg74
Nsg75
Nsg76
I00
sbsS'ptnick_929673096'
p125
(icookielib
Cookie
p126
(dp127
g57
Nsg58
S'.ptlogin2.qq.com'
p128
sg59
g125
sg60
I00
sg61
Nsg62
S'f09f988de29480e29484e29488e29489e29485e29481'
p129
sg64
I01
sg65
(dp130
sg68
I0
sg69
I00
sg70
I00
sg71
I01
sg72
I01
sg73
g52
sg74
Nsg75
Nsg76
I00
sbsS'ETK'
p131
(icookielib
Cookie
p132
(dp133
g57
Nsg58
S'.ptlogin2.qq.com'
p134
sg59
g131
sg60
I00
sg61
Nsg62
g50
sg64
I01
sg65
(dp135
sg68
I0
sg69
I00
sg70
I00
sg71
I01
sg72
I01
sg73
g52
sg74
Nsg75
Nsg76
I00
sbsS'pt_clientip'
p136
(icookielib
Cookie
p137
(dp138
g57
Nsg58
S'.ptlogin2.qq.com'
p139
sg59
g136
sg60
I00
sg61
Nsg62
S'e6356a272991ef95'
p140
sg64
I01
sg65
(dp141
sg68
I0
sg69
I00
sg70
I00
sg71
I01
sg72
I01
sg73
g52
sg74
Nsg75
Nsg76
I00
sbsS'superkey'
p142
(icookielib
Cookie
p143
(dp144
g57
Nsg58
S'.ptlogin2.qq.com'
p145
sg59
g142
sg60
I00
sg61
Nsg62
S'OpIWD9Y5qbftrpihB71xi*d11y6ZdGfIFfbawVt4o-M_'
p146
sg64
I01
sg65
(dp147
S'HttpOnly'
p148
Nssg68
I0
sg69
I00
sg70
I00
sg71
I01
sg72
I01
sg73
g52
sg74
Nsg75
Nsg76
I00
sbsS'superuin'
p149
(icookielib
Cookie
p150
(dp151
g57
Nsg58
S'.ptlogin2.qq.com'
p152
sg59
g149
sg60
I00
sg61
Nsg62
S'o0929673096'
p153
sg64
I01
sg65
(dp154
sg68
I0
sg69
I00
sg70
I00
sg71
I01
sg72
I01
sg73
g52
sg74
Nsg75
Nsg76
I00
sbsssS'.ui.ptlogin2.qq.com'
p155
(dp156
g52
(dp157
S'pt_user_id'
p158
(icookielib
Cookie
p159
(dp160
g57
Nsg58
g155
sg59
g158
sg60
I00
sg61
I1824210428
sg62
S'9035546084863613204'
p161
sg64
I01
sg65
(dp162
sg68
I0
sg69
I00
sg70
I00
sg71
I00
sg72
I01
sg73
g52
sg74
Nsg75
Nsg76
I00
sbsS'ptui_identifier'
p163
(icookielib
Cookie
p164
(dp165
g57
Nsg58
S'.ui.ptlogin2.qq.com'
p166
sg59
g163
sg60
I00
sg61
Nsg62
S'000DCC0313D7754C1B20A7E16FE3695CAE525D9E734454134C88F138'
p167
sg64
I01
sg65
(dp168
sg68
I0
sg69
I00
sg70
I00
sg71
I01
sg72
I01
sg73
g52
sg74
Nsg75
Nsg76
I00
sbsssS'.qq.com'
p169
(dp170
g52
(dp171
S'skey'
p172
(icookielib
Cookie
p173
(dp174
g57
Nsg58
S'.qq.com'
p175
sg59
S'skey'
p176
sg60
I00
sg61
Nsg62
S'@kRzN6H1jn'
p177
sg64
I01
sg65
(dp178
sg68
I0
sg69
I00
sg70
I00
sg71
I01
sg72
I01
sg73
g52
sg74
Nsg75
Nsg76
I00
sbsS'ptisp'
p179
(icookielib
Cookie
p180
(dp181
g57
Nsg58
S'.qq.com'
p182
sg59
g179
sg60
I00
sg61
Nsg62
S'ctc'
p183
sg64
I01
sg65
(dp184
sg68
I0
sg69
I00
sg70
I00
sg71
I01
sg72
I01
sg73
g52
sg74
Nsg75
Nsg76
I00
sbsS'ptwebqq'
p185
(icookielib
Cookie
p186
(dp187
g57
Nsg58
S'.qq.com'
p188
sg59
g185
sg60
I00
sg61
Nsg62
S'85434343cbe25998db2f92173b43864c05f3fdb33c7069033d77c6f46084a851'
p189
sg64
I01
sg65
(dp190
sg68
I0
sg69
I00
sg70
I00
sg71
I01
sg72
I01
sg73
g52
sg74
Nsg75
Nsg76
I00
sbsS'pt2gguin'
p191
(icookielib
Cookie
p192
(dp193
g57
Nsg58
S'.qq.com'
p194
sg59
S'pt2gguin'
p195
sg60
I00
sg61
I1577923200
sg62
S'o0929673096'
p196
sg64
I01
sg65
(dp197
sg68
I0
sg69
I00
sg70
I00
sg71
I00
sg72
I01
sg73
g52
sg74
Nsg75
Nsg76
I00
sbsS'uin'
p198
(icookielib
Cookie
p199
(dp200
g57
Nsg58
S'.qq.com'
p201
sg59
S'uin'
p202
sg60
I00
sg61
Nsg62
S'o0929673096'
p203
sg64
I01
sg65
(dp204
sg68
I0
sg69
I00
sg70
I00
sg71
I01
sg72
I01
sg73
g52
sg74
Nsg75
Nsg76
I00
sbsssS'.web2.qq.com'
p205
(dp206
g52
(dp207
S'p_uin'
p208
(icookielib
Cookie
p209
(dp210
g57
Nsg58
g205
sg59
g208
sg60
I00
sg61
Nsg62
S'o0929673096'
p211
sg64
I01
sg65
(dp212
sg68
I0
sg69
I00
sg70
I00
sg71
I01
sg72
I01
sg73
g52
sg74
Nsg75
Nsg76
I00
sbsS'p_skey'
p213
(icookielib
Cookie
p214
(dp215
g57
Nsg58
S'.web2.qq.com'
p216
sg59
g213
sg60
I00
sg61
Nsg62
S'Vwrf0iq7BLmHD*bZc3kkLLGT8xqsElv3lQQjiC47hy4_'
p217
sg64
I01
sg65
(dp218
sg68
I0
sg69
I00
sg70
I00
sg71
I01
sg72
I01
sg73
g52
sg74
Nsg75
Nsg76
I00
sbsS'pt4_token'
p219
(icookielib
Cookie
p220
(dp221
g57
Nsg58
S'.web2.qq.com'
p222
sg59
g219
sg60
I00
sg61
Nsg62
S'iSAWGiP69ldk08-eCWJxNcnvvfoQ0tet-bfLi75-o48_'
p223
sg64
I01
sg65
(dp224
sg68
I0
sg69
I00
sg70
I00
sg71
I01
sg72
I01
sg73
g52
sg74
Nsg75
Nsg76
I00
sbssssbsS'stream'
p225
I00
sS'hooks'
p226
(dp227
S'response'
p228
(lp229
ssS'auth'
p230
NsS'trust_env'
p231
I01
sS'headers'
p232
g21
(crequests.structures
CaseInsensitiveDict
p233
g23
Ntp234
Rp235
(dp236
S'_store'
p237
curllib3.packages.ordered_dict
OrderedDict
p238
((lp239
(lp240
S'connection'
p241
a(S'Connection'
p242
S'keep-alive'
p243
tp244
aa(lp245
S'accept-encoding'
p246
a(S'Accept-Encoding'
p247
S'gzip, deflate'
p248
tp249
aa(lp250
S'accept'
p251
a(S'Accept'
p252
S'*/*'
p253
tp254
aa(lp255
S'user-agent'
p256
a(S'User-Agent'
p257
S'Mozilla/5.0 (Macintosh; Intel Mac OS X 10.9; rv:27.0) Gecko/20100101 Firefox/27.0'
p258
tp259
aa(lp260
S'content-type'
p261
a(S'Content-Type'
p262
S'application/x-www-form-urlencoded; charset=UTF-8'
p263
tp264
aa(lp265
S'referer'
p266
a(S'Referer'
p267
S'http://d1.web2.qq.com/proxy.html?v=20151105001&callback=1&id=2'
p268
tp269
aa(lp270
S'origin'
p271
a(S'Origin'
p272
S'http://d1.web2.qq.com'
p273
tp274
aatp275
Rp276
sbsS'cert'
p277
NsS'params'
p278
(dp279
sS'prefetch'
p280
NsS'verify'
p281
I01
sS'proxies'
p282
(dp283
sS'adapters'
p284
g238
((lp285
(lp286
S'https://'
p287
ag21
(crequests.adapters
HTTPAdapter
p288
g23
Ntp289
Rp290
(dp291
S'_pool_block'
p292
I00
sS'_pool_maxsize'
p293
I10
sS'max_retries'
p294
g21
(curllib3.util.retry
Retry
p295
g23
Ntp296
Rp297
(dp298
S'status'
p299
NsS'redirect'
p300
NsS'read'
p301
I00
sS'backoff_factor'
p302
I0
sS'respect_retry_after_header'
p303
I01
sS'history'
p304
(tsS'raise_on_status'
p305
I01
sS'connect'
p306
NsS'status_forcelist'
p307
c__builtin__
set
p308
((lp309
tp310
Rp311
sS'total'
p312
I0
sS'raise_on_redirect'
p313
I01
sS'method_whitelist'
p314
c__builtin__
frozenset
p315
((lp316
S'HEAD'
p317
aS'TRACE'
p318
aS'GET'
p319
aS'PUT'
p320
aS'OPTIONS'
p321
aS'DELETE'
p322
atp323
Rp324
sbsS'config'
p325
(dp326
sS'_pool_connections'
p327
I10
sbaa(lp328
S'http://'
p329
ag21
(g288
g23
Ntp330
Rp331
(dp332
g292
I00
sg293
I10
sg294
g21
(g295
g23
Ntp333
Rp334
(dp335
g299
Nsg300
Nsg301
I00
sg302
I0
sg303
I01
sg304
(tsg305
I01
sg306
Nsg307
g308
((lp336
tp337
Rp338
sg312
I0
sg313
I01
sg314
g324
sbsg325
(dp339
sg327
I10
sbaatp340
Rp341
sS'max_redirects'
p342
I30
sbsS'ptwebqq'
p343
g189
sS'dbname'
p344
S'/home/ubuntu8/yumingming/xnr1/xnr/static/images/QQ/1027/2017-10-24-21-07-32-929673096-contact.db'
p345
s.