(dp0
S'qq'
p1
S'1965056593'
p2
sS'psessionid'
p3
S'8368046764001d636f6e6e7365727665725f77656271714031302e3133332e34312e383400001ad00000066b026e040015808a206d0000000a406172314338344a69526d0000002859185d94e66218548d1ecb1a12513c86126b3afb97a3c2955b1070324790733ddb059ab166de6857'
p4
sS'hash'
p5
S'09305E63072D511A'
p6
sS'dbbasename'
p7
S'2018-05-04-14-54-54-1965056593-contact.db'
p8
sS'lastSendTime'
p9
I0
sS'msgId'
p10
I6000000
sS'bkn'
p11
I232328515
sS'urlPtwebqq'
p12
S'http://ptlogin2.web2.qq.com/check_sig?pttype=1&uin=1965056593&service=ptqrlogin&nodirect=0&ptsigx=f3b2e3defec94bd1960b4ea30842ed5af83ef2f828241cf9eade69f2a8c272a49cab49c0f3a51db088c372b53e35ffa1466f568e6d6c54bf6fd114d285aef842&s_url=http%3A%2F%2Fw.qq.com%2Fproxy.html%3Flogin2qq%3D1%26webqq_type%3D10&f_url=&ptlang=2052&ptredirect=100&aid=501004106&daid=164&j_later=0&low_login_hour=0&regmaster=0&pt_login_type=3&pt_aid=0&pt_aaid=16&pt_light=0&pt_3rd_aid=0'
p13
sS'clientid'
p14
I53999199
sS'uin'
p15
I1965056593
sS'nick'
p16
S'\xe8\xa2\x81\xe6\x85\xa7\xe8\x8c\xb9'
p17
sS'vfwebqq'
p18
S'97965cab7f74670e322e8c57320b2bed06dfb1a1fee0373b4cc505242ee8eebdab9a8977a4916755'
p19
sS'session'
p20
ccopy_reg
_reconstructor
p21
(crequests.sessions
Session
p22
c__builtin__
object
p23
Ntp24
Rp25
(dp26
S'cookies'
p27
g21
(crequests.cookies
RequestsCookieJar
p28
g23
Ntp29
Rp30
(dp31
S'_now'
p32
I1525416895
sS'_policy'
p33
(icookielib
DefaultCookiePolicy
p34
(dp35
S'strict_rfc2965_unverifiable'
p36
I01
sS'strict_ns_domain'
p37
I0
sS'_allowed_domains'
p38
NsS'rfc2109_as_netscape'
p39
NsS'rfc2965'
p40
I00
sS'strict_domain'
p41
I00
sg32
I1525416895
sS'strict_ns_set_path'
p42
I00
sS'strict_ns_unverifiable'
p43
I00
sS'strict_ns_set_initial_dollar'
p44
I00
sS'hide_cookie2'
p45
I00
sS'_blocked_domains'
p46
(tsS'netscape'
p47
I01
sbsS'_cookies'
p48
(dp49
S''
p50
(dp51
S'/'
p52
(dp53
S'ptcz'
p54
(icookielib
Cookie
p55
(dp56
S'comment'
p57
NsS'domain'
p58
g50
sS'name'
p59
g54
sS'domain_initial_dot'
p60
I00
sS'expires'
p61
NsS'value'
p62
S'ad3bf14f9da2738e09e498bfeb93dd9da7540dea2b7a71acfb97ed4d3da4e277'
p63
sS'domain_specified'
p64
I00
sS'_rest'
p65
(dp66
S'HttpOnly'
p67
NssS'version'
p68
I0
sS'port_specified'
p69
I00
sS'rfc2109'
p70
I00
sS'discard'
p71
I01
sS'path_specified'
p72
I01
sS'path'
p73
g52
sS'port'
p74
NsS'comment_url'
p75
NsS'secure'
p76
I00
sbsS'pgv_pvi'
p77
(icookielib
Cookie
p78
(dp79
g57
Nsg58
g50
sg59
g77
sg60
I00
sg61
Nsg62
S'911366144'
p80
sg64
I00
sg65
(dp81
g67
Nssg68
I0
sg69
I00
sg70
I00
sg71
I01
sg72
I01
sg73
g52
sg74
Nsg75
Nsg76
I00
sbsS'pgv_info'
p82
(icookielib
Cookie
p83
(dp84
g57
Nsg58
g50
sg59
g82
sg60
I00
sg61
Nsg62
S'ssid pgv_pvid=1051433466'
p85
sg64
I00
sg65
(dp86
g67
Nssg68
I0
sg69
I00
sg70
I00
sg71
I01
sg72
I01
sg73
g52
sg74
Nsg75
Nsg76
I00
sbsS'RK'
p87
(icookielib
Cookie
p88
(dp89
g57
Nsg58
g50
sg59
g87
sg60
I00
sg61
Nsg62
S'OfeLBai4FB'
p90
sg64
I00
sg65
(dp91
g67
Nssg68
I0
sg69
I00
sg70
I00
sg71
I01
sg72
I01
sg73
g52
sg74
Nsg75
Nsg76
I00
sbsssS'.ptlogin2.qq.com'
p92
(dp93
g52
(dp94
S'pt_login_sig'
p95
(icookielib
Cookie
p96
(dp97
g57
Nsg58
g92
sg59
g95
sg60
I00
sg61
Nsg62
S'chs-QlGJhx7PVVAHVPythjHUWWwNA-Db-NcGCLgipUEYVGZBw*MD4JjXOt5KSyf6'
p98
sg64
I01
sg65
(dp99
sg68
I0
sg69
I00
sg70
I00
sg71
I01
sg72
I01
sg73
g52
sg74
Nsg75
Nsg76
I00
sbsS'qrsig'
p100
(icookielib
Cookie
p101
(dp102
g57
Nsg58
S'.ptlogin2.qq.com'
p103
sg59
g100
sg60
I00
sg61
Nsg62
S'lzmT9zyiavXHS2xglfJe*plyj2z*fQJyKbExCWO4416fDnW-FOF4XvEmE23f2MZh'
p104
sg64
I01
sg65
(dp105
sg68
I0
sg69
I00
sg70
I00
sg71
I01
sg72
I01
sg73
g52
sg74
Nsg75
Nsg76
I00
sbsS'ptnick_1965056593'
p106
(icookielib
Cookie
p107
(dp108
g57
Nsg58
S'.ptlogin2.qq.com'
p109
sg59
g106
sg60
I00
sg61
Nsg62
S'e8a281e685a7e88cb9'
p110
sg64
I01
sg65
(dp111
sg68
I0
sg69
I00
sg70
I00
sg71
I01
sg72
I01
sg73
g52
sg74
Nsg75
Nsg76
I00
sbsS'pt_serverip'
p112
(icookielib
Cookie
p113
(dp114
g57
Nsg58
S'.ptlogin2.qq.com'
p115
sg59
g112
sg60
I00
sg61
Nsg62
S'b72b0abf0e2ff618'
p116
sg64
I01
sg65
(dp117
sg68
I0
sg69
I00
sg70
I00
sg71
I01
sg72
I01
sg73
g52
sg74
Nsg75
Nsg76
I00
sbsS'supertoken'
p118
(icookielib
Cookie
p119
(dp120
g57
Nsg58
S'.ptlogin2.qq.com'
p121
sg59
g118
sg60
I00
sg61
Nsg62
S'3216735258'
p122
sg64
I01
sg65
(dp123
sg68
I0
sg69
I00
sg70
I00
sg71
I01
sg72
I01
sg73
g52
sg74
Nsg75
Nsg76
I00
sbsS'pt_recent_uins'
p124
(icookielib
Cookie
p125
(dp126
g57
Nsg58
S'.ptlogin2.qq.com'
p127
sg59
g124
sg60
I00
sg61
I1528008894
sg62
S'0552321fcabf5e5ec1be605c90b7113dd77202505fc8e5c20089a4a61c36e230321980e755943a58a1243e010aa94f0ff800fe620279c7ca'
p128
sg64
I01
sg65
(dp129
S'HttpOnly'
p130
Nssg68
I0
sg69
I00
sg70
I00
sg71
I00
sg72
I01
sg73
g52
sg74
Nsg75
Nsg76
I00
sbsS'ETK'
p131
(icookielib
Cookie
p132
(dp133
g57
Nsg58
S'.ptlogin2.qq.com'
p134
sg59
g131
sg60
I00
sg61
Nsg62
g50
sg64
I01
sg65
(dp135
sg68
I0
sg69
I00
sg70
I00
sg71
I01
sg72
I01
sg73
g52
sg74
Nsg75
Nsg76
I00
sbsS'pt_clientip'
p136
(icookielib
Cookie
p137
(dp138
g57
Nsg58
S'.ptlogin2.qq.com'
p139
sg59
g136
sg60
I00
sg61
Nsg62
S'ab9a72ffb7dd71a3'
p140
sg64
I01
sg65
(dp141
sg68
I0
sg69
I00
sg70
I00
sg71
I01
sg72
I01
sg73
g52
sg74
Nsg75
Nsg76
I00
sbsS'superkey'
p142
(icookielib
Cookie
p143
(dp144
g57
Nsg58
S'.ptlogin2.qq.com'
p145
sg59
g142
sg60
I00
sg61
Nsg62
S'63P3SAnaK14DHh0JoUfwRN8LIWSNSqrW*paz8ZYmC*A_'
p146
sg64
I01
sg65
(dp147
S'HttpOnly'
p148
Nssg68
I0
sg69
I00
sg70
I00
sg71
I01
sg72
I01
sg73
g52
sg74
Nsg75
Nsg76
I00
sbsS'superuin'
p149
(icookielib
Cookie
p150
(dp151
g57
Nsg58
S'.ptlogin2.qq.com'
p152
sg59
g149
sg60
I00
sg61
Nsg62
S'o1965056593'
p153
sg64
I01
sg65
(dp154
sg68
I0
sg69
I00
sg70
I00
sg71
I01
sg72
I01
sg73
g52
sg74
Nsg75
Nsg76
I00
sbsssS'.ui.ptlogin2.qq.com'
p155
(dp156
g52
(dp157
S'pt_user_id'
p158
(icookielib
Cookie
p159
(dp160
g57
Nsg58
g155
sg59
g158
sg60
I00
sg61
I1840776846
sg62
S'6545267467549704410'
p161
sg64
I01
sg65
(dp162
sg68
I0
sg69
I00
sg70
I00
sg71
I00
sg72
I01
sg73
g52
sg74
Nsg75
Nsg76
I00
sbsS'ptui_identifier'
p163
(icookielib
Cookie
p164
(dp165
g57
Nsg58
S'.ui.ptlogin2.qq.com'
p166
sg59
g163
sg60
I00
sg61
Nsg62
S'000DCA558D29801B97DB46D23F3576E8736B55D8ED91C5053156152C'
p167
sg64
I01
sg65
(dp168
sg68
I0
sg69
I00
sg70
I00
sg71
I01
sg72
I01
sg73
g52
sg74
Nsg75
Nsg76
I00
sbsssS'.qq.com'
p169
(dp170
g52
(dp171
S'ptisp'
p172
(icookielib
Cookie
p173
(dp174
g57
Nsg58
S'.qq.com'
p175
sg59
g172
sg60
I00
sg61
Nsg62
S'cnc'
p176
sg64
I01
sg65
(dp177
sg68
I0
sg69
I00
sg70
I00
sg71
I01
sg72
I01
sg73
g52
sg74
Nsg75
Nsg76
I00
sbsS'skey'
p178
(icookielib
Cookie
p179
(dp180
g57
Nsg58
S'.qq.com'
p181
sg59
S'skey'
p182
sg60
I00
sg61
Nsg62
S'@v8vhm7C3X'
p183
sg64
I01
sg65
(dp184
sg68
I0
sg69
I00
sg70
I00
sg71
I01
sg72
I01
sg73
g52
sg74
Nsg75
Nsg76
I00
sbsS'uin'
p185
(icookielib
Cookie
p186
(dp187
g57
Nsg58
S'.qq.com'
p188
sg59
S'uin'
p189
sg60
I00
sg61
Nsg62
S'o1965056593'
p190
sg64
I01
sg65
(dp191
sg68
I0
sg69
I00
sg70
I00
sg71
I01
sg72
I01
sg73
g52
sg74
Nsg75
Nsg76
I00
sbsS'ptcz'
p192
(icookielib
Cookie
p193
(dp194
g57
Nsg58
S'.qq.com'
p195
sg59
g192
sg60
I00
sg61
I2147483647
sg62
S'ad3bf14f9da2738e09e498bfeb93dd9da7540dea2b7a71acfb97ed4d3da4e277'
p196
sg64
I01
sg65
(dp197
sg68
I0
sg69
I00
sg70
I00
sg71
I00
sg72
I01
sg73
g52
sg74
Nsg75
Nsg76
I00
sbsS'pt2gguin'
p198
(icookielib
Cookie
p199
(dp200
g57
Nsg58
S'.qq.com'
p201
sg59
S'pt2gguin'
p202
sg60
I00
sg61
I2147483647
sg62
S'o1965056593'
p203
sg64
I01
sg65
(dp204
sg68
I0
sg69
I00
sg70
I00
sg71
I00
sg72
I01
sg73
g52
sg74
Nsg75
Nsg76
I00
sbsS'ptwebqq'
p205
(icookielib
Cookie
p206
(dp207
g57
Nsg58
S'.qq.com'
p208
sg59
g205
sg60
I00
sg61
Nsg62
S'28193acb582fc5ce2217c23edaf6fb2ec0ed38bafc0a2511befb75099e04eb22'
p209
sg64
I01
sg65
(dp210
sg68
I0
sg69
I00
sg70
I00
sg71
I01
sg72
I01
sg73
g52
sg74
Nsg75
Nsg76
I00
sbsssS'.web2.qq.com'
p211
(dp212
g52
(dp213
S'p_uin'
p214
(icookielib
Cookie
p215
(dp216
g57
Nsg58
g211
sg59
g214
sg60
I00
sg61
Nsg62
S'o1965056593'
p217
sg64
I01
sg65
(dp218
sg68
I0
sg69
I00
sg70
I00
sg71
I01
sg72
I01
sg73
g52
sg74
Nsg75
Nsg76
I00
sbsS'p_skey'
p219
(icookielib
Cookie
p220
(dp221
g57
Nsg58
S'.web2.qq.com'
p222
sg59
g219
sg60
I00
sg61
Nsg62
S'bvYZFUgQ7ssjuJgjBdVaf*ErJLw*rUopnSPI0qprddk_'
p223
sg64
I01
sg65
(dp224
sg68
I0
sg69
I00
sg70
I00
sg71
I01
sg72
I01
sg73
g52
sg74
Nsg75
Nsg76
I00
sbsS'pt4_token'
p225
(icookielib
Cookie
p226
(dp227
g57
Nsg58
S'.web2.qq.com'
p228
sg59
g225
sg60
I00
sg61
Nsg62
S'maOnUSv4GHaEc2rBeNFk0eSKbajx2*ZfNZqz59q-4c8_'
p229
sg64
I01
sg65
(dp230
sg68
I0
sg69
I00
sg70
I00
sg71
I01
sg72
I01
sg73
g52
sg74
Nsg75
Nsg76
I00
sbssssbsS'stream'
p231
I00
sS'hooks'
p232
(dp233
S'response'
p234
(lp235
ssS'auth'
p236
NsS'trust_env'
p237
I01
sS'headers'
p238
g21
(crequests.structures
CaseInsensitiveDict
p239
g23
Ntp240
Rp241
(dp242
S'_store'
p243
curllib3.packages.ordered_dict
OrderedDict
p244
((lp245
(lp246
S'connection'
p247
a(S'Connection'
p248
S'keep-alive'
p249
tp250
aa(lp251
S'accept-encoding'
p252
a(S'Accept-Encoding'
p253
S'gzip, deflate'
p254
tp255
aa(lp256
S'accept'
p257
a(S'Accept'
p258
S'*/*'
p259
tp260
aa(lp261
S'user-agent'
p262
a(S'User-Agent'
p263
S'Mozilla/5.0 (Macintosh; Intel Mac OS X 10.9; rv:27.0) Gecko/20100101 Firefox/27.0'
p264
tp265
aa(lp266
S'content-type'
p267
a(S'Content-Type'
p268
S'application/x-www-form-urlencoded; charset=UTF-8'
p269
tp270
aa(lp271
S'referer'
p272
a(S'Referer'
p273
S'http://d1.web2.qq.com/proxy.html?v=20151105001&callback=1&id=2'
p274
tp275
aa(lp276
S'origin'
p277
a(S'Origin'
p278
S'http://d1.web2.qq.com'
p279
tp280
aatp281
Rp282
sbsS'cert'
p283
NsS'params'
p284
(dp285
sS'prefetch'
p286
NsS'verify'
p287
I01
sS'proxies'
p288
(dp289
sS'adapters'
p290
g244
((lp291
(lp292
S'https://'
p293
ag21
(crequests.adapters
HTTPAdapter
p294
g23
Ntp295
Rp296
(dp297
S'_pool_block'
p298
I00
sS'_pool_maxsize'
p299
I10
sS'max_retries'
p300
g21
(curllib3.util.retry
Retry
p301
g23
Ntp302
Rp303
(dp304
S'status'
p305
NsS'redirect'
p306
NsS'read'
p307
I00
sS'backoff_factor'
p308
I0
sS'respect_retry_after_header'
p309
I01
sS'history'
p310
(tsS'raise_on_status'
p311
I01
sS'connect'
p312
NsS'status_forcelist'
p313
c__builtin__
set
p314
((lp315
tp316
Rp317
sS'total'
p318
I0
sS'raise_on_redirect'
p319
I01
sS'method_whitelist'
p320
c__builtin__
frozenset
p321
((lp322
S'HEAD'
p323
aS'TRACE'
p324
aS'GET'
p325
aS'PUT'
p326
aS'OPTIONS'
p327
aS'DELETE'
p328
atp329
Rp330
sbsS'config'
p331
(dp332
sS'_pool_connections'
p333
I10
sbaa(lp334
S'http://'
p335
ag21
(g294
g23
Ntp336
Rp337
(dp338
g298
I00
sg299
I10
sg300
g21
(g301
g23
Ntp339
Rp340
(dp341
g305
Nsg306
Nsg307
I00
sg308
I0
sg309
I01
sg310
(tsg311
I01
sg312
Nsg313
g314
((lp342
tp343
Rp344
sg318
I0
sg319
I01
sg320
g330
sbsg331
(dp345
sg333
I10
sbaatp346
Rp347
sS'max_redirects'
p348
I30
sbsS'ptwebqq'
p349
g209
sS'dbname'
p350
S'/home/xnr1/xnr_0429/xnr/static/images/QQ/1026/2018-05-04-14-54-54-1965056593-contact.db'
p351
s.