(dp0
S'qq'
p1
S'1965056593'
p2
sS'psessionid'
p3
S'8368046764001d636f6e6e7365727665725f77656271714031302e3133332e34312e383400001ad00000066b026e040015808a206d0000000a406172314338344a69526d0000002859185d94e66218548d1ecb1a12513c86126b3afb97a3c2955b1070324790733ddb059ab166de6857'
p4
sS'hash'
p5
S'5A305F63022D041A'
p6
sS'dbbasename'
p7
S'2017-10-08-15-43-53-1965056593-contact.db'
p8
sS'lastSendTime'
p9
I0
sS'msgId'
p10
I6000000
sS'bkn'
p11
I417146166
sS'urlPtwebqq'
p12
S'http://ptlogin2.web2.qq.com/check_sig?pttype=1&uin=1965056593&service=ptqrlogin&nodirect=0&ptsigx=25cd4f51a18644f0660547263b069b2668013f14a83e97092266fa71ecf31f88f3c557cb5f9f10dc3efa947a18a52d01d97d7efcb7f6e32787b96feb90acceb4&s_url=http%3A%2F%2Fw.qq.com%2Fproxy.html%3Flogin2qq%3D1%26webqq_type%3D10&f_url=&ptlang=2052&ptredirect=100&aid=501004106&daid=164&j_later=0&low_login_hour=0&regmaster=0&pt_login_type=3&pt_aid=0&pt_aaid=16&pt_light=0&pt_3rd_aid=0'
p13
sS'clientid'
p14
I53999199
sS'uin'
p15
I1965056593
sS'nick'
p16
S'\xe8\xa2\x81\xe6\x85\xa7\xe8\x8c\xb9'
p17
sS'vfwebqq'
p18
S'4474e031cbe69db2de38678b2d9295088f46b8b81f45164395d6438f1d5f028369101c749466cb30'
p19
sS'session'
p20
ccopy_reg
_reconstructor
p21
(crequests.sessions
Session
p22
c__builtin__
object
p23
Ntp24
Rp25
(dp26
S'cookies'
p27
g21
(crequests.cookies
RequestsCookieJar
p28
g23
Ntp29
Rp30
(dp31
S'_now'
p32
I1507448633
sS'_policy'
p33
(icookielib
DefaultCookiePolicy
p34
(dp35
S'strict_rfc2965_unverifiable'
p36
I01
sS'strict_ns_domain'
p37
I0
sS'_allowed_domains'
p38
NsS'rfc2109_as_netscape'
p39
NsS'rfc2965'
p40
I00
sS'strict_domain'
p41
I00
sg32
I1507448633
sS'strict_ns_set_path'
p42
I00
sS'strict_ns_unverifiable'
p43
I00
sS'strict_ns_set_initial_dollar'
p44
I00
sS'hide_cookie2'
p45
I00
sS'_blocked_domains'
p46
(tsS'netscape'
p47
I01
sbsS'_cookies'
p48
(dp49
S''
p50
(dp51
S'/'
p52
(dp53
S'ptcz'
p54
(icookielib
Cookie
p55
(dp56
S'comment'
p57
NsS'domain'
p58
g50
sS'name'
p59
g54
sS'domain_initial_dot'
p60
I00
sS'expires'
p61
NsS'value'
p62
S'ad3bf14f9da2738e09e498bfeb93dd9da7540dea2b7a71acfb97ed4d3da4e277'
p63
sS'domain_specified'
p64
I00
sS'_rest'
p65
(dp66
S'HttpOnly'
p67
NssS'version'
p68
I0
sS'port_specified'
p69
I00
sS'rfc2109'
p70
I00
sS'discard'
p71
I01
sS'path_specified'
p72
I01
sS'path'
p73
g52
sS'port'
p74
NsS'comment_url'
p75
NsS'secure'
p76
I00
sbsS'pgv_pvi'
p77
(icookielib
Cookie
p78
(dp79
g57
Nsg58
g50
sg59
g77
sg60
I00
sg61
Nsg62
S'911366144'
p80
sg64
I00
sg65
(dp81
g67
Nssg68
I0
sg69
I00
sg70
I00
sg71
I01
sg72
I01
sg73
g52
sg74
Nsg75
Nsg76
I00
sbsS'pgv_info'
p82
(icookielib
Cookie
p83
(dp84
g57
Nsg58
g50
sg59
g82
sg60
I00
sg61
Nsg62
S'ssid pgv_pvid=1051433466'
p85
sg64
I00
sg65
(dp86
g67
Nssg68
I0
sg69
I00
sg70
I00
sg71
I01
sg72
I01
sg73
g52
sg74
Nsg75
Nsg76
I00
sbsS'RK'
p87
(icookielib
Cookie
p88
(dp89
g57
Nsg58
g50
sg59
g87
sg60
I00
sg61
Nsg62
S'OfeLBai4FB'
p90
sg64
I00
sg65
(dp91
g67
Nssg68
I0
sg69
I00
sg70
I00
sg71
I01
sg72
I01
sg73
g52
sg74
Nsg75
Nsg76
I00
sbsssS'.ptlogin2.qq.com'
p92
(dp93
g52
(dp94
S'pt_login_sig'
p95
(icookielib
Cookie
p96
(dp97
g57
Nsg58
g92
sg59
g95
sg60
I00
sg61
Nsg62
S'36QwMu1DaQe6baVOZgXyu0VIIdRvMrCD0Hxuiym1bEdAsuq3w1SzVgan8qG0a4BN'
p98
sg64
I01
sg65
(dp99
sg68
I0
sg69
I00
sg70
I00
sg71
I01
sg72
I01
sg73
g52
sg74
Nsg75
Nsg76
I00
sbsS'uikey'
p100
(icookielib
Cookie
p101
(dp102
g57
Nsg58
S'.ptlogin2.qq.com'
p103
sg59
g100
sg60
I00
sg61
Nsg62
S'bff42c7071a9cb39b9c7c22f9dd43e1df3398a79b4a5360a766f47875011e043'
p104
sg64
I01
sg65
(dp105
sg68
I0
sg69
I00
sg70
I00
sg71
I01
sg72
I01
sg73
g52
sg74
Nsg75
Nsg76
I00
sbsS'qrsig'
p106
(icookielib
Cookie
p107
(dp108
g57
Nsg58
S'.ptlogin2.qq.com'
p109
sg59
S'qrsig'
p110
sg60
I00
sg61
Nsg62
S'*RPyHUvoaTsjryiEULK6HmPuQ*CmVPsUbZCUnIfkJuJ3cnh4I17eUQ2YSNpqb*ax'
p111
sg64
I01
sg65
(dp112
sg68
I0
sg69
I00
sg70
I00
sg71
I01
sg72
I01
sg73
g52
sg74
Nsg75
Nsg76
I00
sbsS'ptnick_1965056593'
p113
(icookielib
Cookie
p114
(dp115
g57
Nsg58
S'.ptlogin2.qq.com'
p116
sg59
g113
sg60
I00
sg61
Nsg62
S'e8a281e685a7e88cb9'
p117
sg64
I01
sg65
(dp118
sg68
I0
sg69
I00
sg70
I00
sg71
I01
sg72
I01
sg73
g52
sg74
Nsg75
Nsg76
I00
sbsS'pt_serverip'
p119
(icookielib
Cookie
p120
(dp121
g57
Nsg58
S'.ptlogin2.qq.com'
p122
sg59
g119
sg60
I00
sg61
Nsg62
S'1de80af4981062d2'
p123
sg64
I01
sg65
(dp124
sg68
I0
sg69
I00
sg70
I00
sg71
I01
sg72
I01
sg73
g52
sg74
Nsg75
Nsg76
I00
sbsS'supertoken'
p125
(icookielib
Cookie
p126
(dp127
g57
Nsg58
S'.ptlogin2.qq.com'
p128
sg59
g125
sg60
I00
sg61
Nsg62
S'2697311922'
p129
sg64
I01
sg65
(dp130
sg68
I0
sg69
I00
sg70
I00
sg71
I01
sg72
I01
sg73
g52
sg74
Nsg75
Nsg76
I00
sbsS'pt_recent_uins'
p131
(icookielib
Cookie
p132
(dp133
g57
Nsg58
S'.ptlogin2.qq.com'
p134
sg59
g131
sg60
I00
sg61
I1510040632
sg62
S'c547e5015ca18cb23069993b3f15b0bce541b407d6d7e8ff306796f4f0fa4da934cf8595f193fc2a0fefd45cac26af62914b169fefa7f2f7'
p135
sg64
I01
sg65
(dp136
S'HttpOnly'
p137
Nssg68
I0
sg69
I00
sg70
I00
sg71
I00
sg72
I01
sg73
g52
sg74
Nsg75
Nsg76
I00
sbsS'ETK'
p138
(icookielib
Cookie
p139
(dp140
g57
Nsg58
S'.ptlogin2.qq.com'
p141
sg59
g138
sg60
I00
sg61
Nsg62
g50
sg64
I01
sg65
(dp142
sg68
I0
sg69
I00
sg70
I00
sg71
I01
sg72
I01
sg73
g52
sg74
Nsg75
Nsg76
I00
sbsS'pt_clientip'
p143
(icookielib
Cookie
p144
(dp145
g57
Nsg58
S'.ptlogin2.qq.com'
p146
sg59
g143
sg60
I00
sg61
Nsg62
S'08fb6a272991da49'
p147
sg64
I01
sg65
(dp148
sg68
I0
sg69
I00
sg70
I00
sg71
I01
sg72
I01
sg73
g52
sg74
Nsg75
Nsg76
I00
sbsS'superkey'
p149
(icookielib
Cookie
p150
(dp151
g57
Nsg58
S'.ptlogin2.qq.com'
p152
sg59
g149
sg60
I00
sg61
Nsg62
S'Wv4Ddb2lGRDbAS27hvjxnGDnv4EvAhDVN3MzKc9-Tw8_'
p153
sg64
I01
sg65
(dp154
S'HttpOnly'
p155
Nssg68
I0
sg69
I00
sg70
I00
sg71
I01
sg72
I01
sg73
g52
sg74
Nsg75
Nsg76
I00
sbsS'superuin'
p156
(icookielib
Cookie
p157
(dp158
g57
Nsg58
S'.ptlogin2.qq.com'
p159
sg59
g156
sg60
I00
sg61
Nsg62
S'o1965056593'
p160
sg64
I01
sg65
(dp161
sg68
I0
sg69
I00
sg70
I00
sg71
I01
sg72
I01
sg73
g52
sg74
Nsg75
Nsg76
I00
sbsssS'.ui.ptlogin2.qq.com'
p162
(dp163
g52
(dp164
S'pt_user_id'
p165
(icookielib
Cookie
p166
(dp167
g57
Nsg58
g162
sg59
g165
sg60
I00
sg61
I1822808418
sg62
S'2068929246177799386'
p168
sg64
I01
sg65
(dp169
sg68
I0
sg69
I00
sg70
I00
sg71
I00
sg72
I01
sg73
g52
sg74
Nsg75
Nsg76
I00
sbsS'login_param'
p170
(icookielib
Cookie
p171
(dp172
g57
Nsg58
S'.ui.ptlogin2.qq.com'
p173
sg59
g170
sg60
I00
sg61
Nsg62
S'daid%3D164%26target%3Dself%26style%3D16%26mibao_css%3Dm_webqq%26appid%3D501004106%26enable_qlogin%3D0%26no_verifyimg%3D1%26s_url%3Dhttp%253A%252F%252Fw.qq.com%252Fproxy.html%26f_url%3Dloginerroralert%26strong_login%3D1%26login_state%3D10%26t%3D20131024001'
p174
sg64
I01
sg65
(dp175
sg68
I0
sg69
I00
sg70
I00
sg71
I01
sg72
I01
sg73
g52
sg74
Nsg75
Nsg76
I00
sbsS'ptui_identifier'
p176
(icookielib
Cookie
p177
(dp178
g57
Nsg58
S'.ui.ptlogin2.qq.com'
p179
sg59
g176
sg60
I00
sg61
Nsg62
S'000DE35DC04A7BE9059129D2047DC3CCDD4EFED2DCD023F52795C64F'
p180
sg64
I01
sg65
(dp181
sg68
I0
sg69
I00
sg70
I00
sg71
I01
sg72
I01
sg73
g52
sg74
Nsg75
Nsg76
I00
sbsssS'.qq.com'
p182
(dp183
g52
(dp184
S'skey'
p185
(icookielib
Cookie
p186
(dp187
g57
Nsg58
S'.qq.com'
p188
sg59
S'skey'
p189
sg60
I00
sg61
Nsg62
S'@zkM0YYrfE'
p190
sg64
I01
sg65
(dp191
sg68
I0
sg69
I00
sg70
I00
sg71
I01
sg72
I01
sg73
g52
sg74
Nsg75
Nsg76
I00
sbsS'ptwebqq'
p192
(icookielib
Cookie
p193
(dp194
g57
Nsg58
S'.qq.com'
p195
sg59
g192
sg60
I00
sg61
Nsg62
S'0383b34108fe1f64cf8217c2f93b3e24a81af991e81298a751f067dde28139f1'
p196
sg64
I01
sg65
(dp197
sg68
I0
sg69
I00
sg70
I00
sg71
I01
sg72
I01
sg73
g52
sg74
Nsg75
Nsg76
I00
sbsS'pt2gguin'
p198
(icookielib
Cookie
p199
(dp200
g57
Nsg58
S'.qq.com'
p201
sg59
S'pt2gguin'
p202
sg60
I00
sg61
I1577923200
sg62
S'o1965056593'
p203
sg64
I01
sg65
(dp204
sg68
I0
sg69
I00
sg70
I00
sg71
I00
sg72
I01
sg73
g52
sg74
Nsg75
Nsg76
I00
sbsS'uin'
p205
(icookielib
Cookie
p206
(dp207
g57
Nsg58
S'.qq.com'
p208
sg59
S'uin'
p209
sg60
I00
sg61
Nsg62
S'o1965056593'
p210
sg64
I01
sg65
(dp211
sg68
I0
sg69
I00
sg70
I00
sg71
I01
sg72
I01
sg73
g52
sg74
Nsg75
Nsg76
I00
sbsssS'.web2.qq.com'
p212
(dp213
g52
(dp214
S'p_uin'
p215
(icookielib
Cookie
p216
(dp217
g57
Nsg58
g212
sg59
g215
sg60
I00
sg61
Nsg62
S'o1965056593'
p218
sg64
I01
sg65
(dp219
sg68
I0
sg69
I00
sg70
I00
sg71
I01
sg72
I01
sg73
g52
sg74
Nsg75
Nsg76
I00
sbsS'p_skey'
p220
(icookielib
Cookie
p221
(dp222
g57
Nsg58
S'.web2.qq.com'
p223
sg59
g220
sg60
I00
sg61
Nsg62
S'HTICkZht4O*rx4qnMIXR2bUYMefEoWlRK0-qpHHE-YQ_'
p224
sg64
I01
sg65
(dp225
sg68
I0
sg69
I00
sg70
I00
sg71
I01
sg72
I01
sg73
g52
sg74
Nsg75
Nsg76
I00
sbsS'pt4_token'
p226
(icookielib
Cookie
p227
(dp228
g57
Nsg58
S'.web2.qq.com'
p229
sg59
g226
sg60
I00
sg61
Nsg62
S'PYfGIQizL6ZX9BepBgqsAmTXVhM90zDublLaiOtFjBs_'
p230
sg64
I01
sg65
(dp231
sg68
I0
sg69
I00
sg70
I00
sg71
I01
sg72
I01
sg73
g52
sg74
Nsg75
Nsg76
I00
sbssssbsS'stream'
p232
I00
sS'hooks'
p233
(dp234
S'response'
p235
(lp236
ssS'auth'
p237
NsS'trust_env'
p238
I01
sS'headers'
p239
g21
(crequests.structures
CaseInsensitiveDict
p240
g23
Ntp241
Rp242
(dp243
S'_store'
p244
curllib3.packages.ordered_dict
OrderedDict
p245
((lp246
(lp247
S'connection'
p248
a(S'Connection'
p249
S'keep-alive'
p250
tp251
aa(lp252
S'accept-encoding'
p253
a(S'Accept-Encoding'
p254
S'gzip, deflate'
p255
tp256
aa(lp257
S'accept'
p258
a(S'Accept'
p259
S'*/*'
p260
tp261
aa(lp262
S'user-agent'
p263
a(S'User-Agent'
p264
S'Mozilla/5.0 (Macintosh; Intel Mac OS X 10.9; rv:27.0) Gecko/20100101 Firefox/27.0'
p265
tp266
aa(lp267
S'content-type'
p268
a(S'Content-Type'
p269
S'application/x-www-form-urlencoded; charset=UTF-8'
p270
tp271
aa(lp272
S'referer'
p273
a(S'Referer'
p274
S'http://d1.web2.qq.com/proxy.html?v=20151105001&callback=1&id=2'
p275
tp276
aa(lp277
S'origin'
p278
a(S'Origin'
p279
S'http://d1.web2.qq.com'
p280
tp281
aatp282
Rp283
sbsS'cert'
p284
NsS'params'
p285
(dp286
sS'prefetch'
p287
NsS'verify'
p288
I01
sS'proxies'
p289
(dp290
sS'adapters'
p291
g245
((lp292
(lp293
S'https://'
p294
ag21
(crequests.adapters
HTTPAdapter
p295
g23
Ntp296
Rp297
(dp298
S'_pool_block'
p299
I00
sS'_pool_maxsize'
p300
I10
sS'max_retries'
p301
g21
(curllib3.util.retry
Retry
p302
g23
Ntp303
Rp304
(dp305
S'status'
p306
NsS'redirect'
p307
NsS'read'
p308
I00
sS'backoff_factor'
p309
I0
sS'respect_retry_after_header'
p310
I01
sS'history'
p311
(tsS'raise_on_status'
p312
I01
sS'connect'
p313
NsS'status_forcelist'
p314
c__builtin__
set
p315
((lp316
tp317
Rp318
sS'total'
p319
I0
sS'raise_on_redirect'
p320
I01
sS'method_whitelist'
p321
c__builtin__
frozenset
p322
((lp323
S'HEAD'
p324
aS'TRACE'
p325
aS'GET'
p326
aS'PUT'
p327
aS'OPTIONS'
p328
aS'DELETE'
p329
atp330
Rp331
sbsS'config'
p332
(dp333
sS'_pool_connections'
p334
I10
sbaa(lp335
S'http://'
p336
ag21
(g295
g23
Ntp337
Rp338
(dp339
g299
I00
sg300
I10
sg301
g21
(g302
g23
Ntp340
Rp341
(dp342
g306
Nsg307
Nsg308
I00
sg309
I0
sg310
I01
sg311
(tsg312
I01
sg313
Nsg314
g315
((lp343
tp344
Rp345
sg319
I0
sg320
I01
sg321
g331
sbsg332
(dp346
sg334
I10
sbaatp347
Rp348
sS'max_redirects'
p349
I30
sbsS'ptwebqq'
p350
g196
sS'dbname'
p351
S'/home/ubuntu8/yumingming/xnr1/xnr/static/images/QQ/1025/2017-10-08-15-43-53-1965056593-contact.db'
p352
s.