(dp0
S'qq'
p1
S'1965056593'
p2
sS'psessionid'
p3
S'8368046764001d636f6e6e7365727665725f77656271714031302e3133332e34312e383400001ad00000066b026e040015808a206d0000000a406172314338344a69526d0000002859185d94e66218548d1ecb1a12513c86126b3afb97a3c2955b1070324790733ddb059ab166de6857'
p4
sS'hash'
p5
S'5E305D63072D521A'
p6
sS'dbbasename'
p7
S'2017-10-14-20-21-18-1965056593-contact.db'
p8
sS'lastSendTime'
p9
I0
sS'msgId'
p10
I6000000
sS'bkn'
p11
I1555743073
sS'urlPtwebqq'
p12
S'http://ptlogin2.web2.qq.com/check_sig?pttype=1&uin=1965056593&service=ptqrlogin&nodirect=0&ptsigx=de2420baa49676aee0409c2ffa0e8ac035f71138f3287e178d0b5302f160e0a4427346524f1235d1ad7084efe3073029531a8213695b7251e880a484ff76b935&s_url=http%3A%2F%2Fw.qq.com%2Fproxy.html%3Flogin2qq%3D1%26webqq_type%3D10&f_url=&ptlang=2052&ptredirect=100&aid=501004106&daid=164&j_later=0&low_login_hour=0&regmaster=0&pt_login_type=3&pt_aid=0&pt_aaid=16&pt_light=0&pt_3rd_aid=0'
p13
sS'clientid'
p14
I53999199
sS'uin'
p15
I1965056593
sS'nick'
p16
S'\xe8\xa2\x81\xe6\x85\xa7\xe8\x8c\xb9'
p17
sS'vfwebqq'
p18
S'24145c3b5fd57e75c38ac67d50d519b3b8f2b419804f3a20c40c700c500a68206952fb07c6968b3f'
p19
sS'session'
p20
ccopy_reg
_reconstructor
p21
(crequests.sessions
Session
p22
c__builtin__
object
p23
Ntp24
Rp25
(dp26
S'cookies'
p27
g21
(crequests.cookies
RequestsCookieJar
p28
g23
Ntp29
Rp30
(dp31
S'_now'
p32
I1507983679
sS'_policy'
p33
(icookielib
DefaultCookiePolicy
p34
(dp35
S'strict_rfc2965_unverifiable'
p36
I01
sS'strict_ns_domain'
p37
I0
sS'_allowed_domains'
p38
NsS'rfc2109_as_netscape'
p39
NsS'rfc2965'
p40
I00
sS'strict_domain'
p41
I00
sg32
I1507983679
sS'strict_ns_set_path'
p42
I00
sS'strict_ns_unverifiable'
p43
I00
sS'strict_ns_set_initial_dollar'
p44
I00
sS'hide_cookie2'
p45
I00
sS'_blocked_domains'
p46
(tsS'netscape'
p47
I01
sbsS'_cookies'
p48
(dp49
S''
p50
(dp51
S'/'
p52
(dp53
S'ptcz'
p54
(icookielib
Cookie
p55
(dp56
S'comment'
p57
NsS'domain'
p58
g50
sS'name'
p59
g54
sS'domain_initial_dot'
p60
I00
sS'expires'
p61
NsS'value'
p62
S'ad3bf14f9da2738e09e498bfeb93dd9da7540dea2b7a71acfb97ed4d3da4e277'
p63
sS'domain_specified'
p64
I00
sS'_rest'
p65
(dp66
S'HttpOnly'
p67
NssS'version'
p68
I0
sS'port_specified'
p69
I00
sS'rfc2109'
p70
I00
sS'discard'
p71
I01
sS'path_specified'
p72
I01
sS'path'
p73
g52
sS'port'
p74
NsS'comment_url'
p75
NsS'secure'
p76
I00
sbsS'pgv_pvi'
p77
(icookielib
Cookie
p78
(dp79
g57
Nsg58
g50
sg59
g77
sg60
I00
sg61
Nsg62
S'911366144'
p80
sg64
I00
sg65
(dp81
g67
Nssg68
I0
sg69
I00
sg70
I00
sg71
I01
sg72
I01
sg73
g52
sg74
Nsg75
Nsg76
I00
sbsS'pgv_info'
p82
(icookielib
Cookie
p83
(dp84
g57
Nsg58
g50
sg59
g82
sg60
I00
sg61
Nsg62
S'ssid pgv_pvid=1051433466'
p85
sg64
I00
sg65
(dp86
g67
Nssg68
I0
sg69
I00
sg70
I00
sg71
I01
sg72
I01
sg73
g52
sg74
Nsg75
Nsg76
I00
sbsS'RK'
p87
(icookielib
Cookie
p88
(dp89
g57
Nsg58
g50
sg59
g87
sg60
I00
sg61
Nsg62
S'OfeLBai4FB'
p90
sg64
I00
sg65
(dp91
g67
Nssg68
I0
sg69
I00
sg70
I00
sg71
I01
sg72
I01
sg73
g52
sg74
Nsg75
Nsg76
I00
sbsssS'.ptlogin2.qq.com'
p92
(dp93
g52
(dp94
S'pt_login_sig'
p95
(icookielib
Cookie
p96
(dp97
g57
Nsg58
g92
sg59
g95
sg60
I00
sg61
Nsg62
S'KUbOA-zDB8lr4KaRspIqGKXCPGpm0N8VaXF3thxoJBR96OSR-TFq4BUIz-cs1uF9'
p98
sg64
I01
sg65
(dp99
sg68
I0
sg69
I00
sg70
I00
sg71
I01
sg72
I01
sg73
g52
sg74
Nsg75
Nsg76
I00
sbsS'uikey'
p100
(icookielib
Cookie
p101
(dp102
g57
Nsg58
S'.ptlogin2.qq.com'
p103
sg59
g100
sg60
I00
sg61
Nsg62
S'31e8888c46d4893bd93926ec802bde3dc161d53944f1bcbddd4e687886a662c6'
p104
sg64
I01
sg65
(dp105
sg68
I0
sg69
I00
sg70
I00
sg71
I01
sg72
I01
sg73
g52
sg74
Nsg75
Nsg76
I00
sbsS'qrsig'
p106
(icookielib
Cookie
p107
(dp108
g57
Nsg58
S'.ptlogin2.qq.com'
p109
sg59
g106
sg60
I00
sg61
Nsg62
S'tcXvcfC5fP-QJYhKaRg789BNUskq8YnhVXlbtwRc4bvGRS1lZFpOAG5ZTZaDDwMT'
p110
sg64
I01
sg65
(dp111
sg68
I0
sg69
I00
sg70
I00
sg71
I01
sg72
I01
sg73
g52
sg74
Nsg75
Nsg76
I00
sbsS'ptnick_1965056593'
p112
(icookielib
Cookie
p113
(dp114
g57
Nsg58
S'.ptlogin2.qq.com'
p115
sg59
g112
sg60
I00
sg61
Nsg62
S'e8a281e685a7e88cb9'
p116
sg64
I01
sg65
(dp117
sg68
I0
sg69
I00
sg70
I00
sg71
I01
sg72
I01
sg73
g52
sg74
Nsg75
Nsg76
I00
sbsS'pt_serverip'
p118
(icookielib
Cookie
p119
(dp120
g57
Nsg58
S'.ptlogin2.qq.com'
p121
sg59
g118
sg60
I00
sg61
Nsg62
S'246e0af4920539a4'
p122
sg64
I01
sg65
(dp123
sg68
I0
sg69
I00
sg70
I00
sg71
I01
sg72
I01
sg73
g52
sg74
Nsg75
Nsg76
I00
sbsS'supertoken'
p124
(icookielib
Cookie
p125
(dp126
g57
Nsg58
S'.ptlogin2.qq.com'
p127
sg59
g124
sg60
I00
sg61
Nsg62
S'2263752931'
p128
sg64
I01
sg65
(dp129
sg68
I0
sg69
I00
sg70
I00
sg71
I01
sg72
I01
sg73
g52
sg74
Nsg75
Nsg76
I00
sbsS'pt_recent_uins'
p130
(icookielib
Cookie
p131
(dp132
g57
Nsg58
S'.ptlogin2.qq.com'
p133
sg59
g130
sg60
I00
sg61
I1510575679
sg62
S'add12f258fa22769ee4bf18ca884d0dd142e936427163a1f8d52a4d71108f020190af108c5b52e13f6dc74076126a5a3ee9eacad0786dda4'
p134
sg64
I01
sg65
(dp135
S'HttpOnly'
p136
Nssg68
I0
sg69
I00
sg70
I00
sg71
I00
sg72
I01
sg73
g52
sg74
Nsg75
Nsg76
I00
sbsS'ETK'
p137
(icookielib
Cookie
p138
(dp139
g57
Nsg58
S'.ptlogin2.qq.com'
p140
sg59
g137
sg60
I00
sg61
Nsg62
g50
sg64
I01
sg65
(dp141
sg68
I0
sg69
I00
sg70
I00
sg71
I01
sg72
I01
sg73
g52
sg74
Nsg75
Nsg76
I00
sbsS'pt_clientip'
p142
(icookielib
Cookie
p143
(dp144
g57
Nsg58
S'.ptlogin2.qq.com'
p145
sg59
g142
sg60
I00
sg61
Nsg62
S'2b946a27299128a0'
p146
sg64
I01
sg65
(dp147
sg68
I0
sg69
I00
sg70
I00
sg71
I01
sg72
I01
sg73
g52
sg74
Nsg75
Nsg76
I00
sbsS'superkey'
p148
(icookielib
Cookie
p149
(dp150
g57
Nsg58
S'.ptlogin2.qq.com'
p151
sg59
g148
sg60
I00
sg61
Nsg62
S's18g22kx2Sxl0MGgtcDRr4mWmC9dFkj-MQeNRo8N*D4_'
p152
sg64
I01
sg65
(dp153
S'HttpOnly'
p154
Nssg68
I0
sg69
I00
sg70
I00
sg71
I01
sg72
I01
sg73
g52
sg74
Nsg75
Nsg76
I00
sbsS'superuin'
p155
(icookielib
Cookie
p156
(dp157
g57
Nsg58
S'.ptlogin2.qq.com'
p158
sg59
g155
sg60
I00
sg61
Nsg62
S'o1965056593'
p159
sg64
I01
sg65
(dp160
sg68
I0
sg69
I00
sg70
I00
sg71
I01
sg72
I01
sg73
g52
sg74
Nsg75
Nsg76
I00
sbsssS'.ui.ptlogin2.qq.com'
p161
(dp162
g52
(dp163
S'pt_user_id'
p164
(icookielib
Cookie
p165
(dp166
g57
Nsg58
g161
sg59
g164
sg60
I00
sg61
I1823343651
sg62
S'17742716591442014390'
p167
sg64
I01
sg65
(dp168
sg68
I0
sg69
I00
sg70
I00
sg71
I00
sg72
I01
sg73
g52
sg74
Nsg75
Nsg76
I00
sbsS'login_param'
p169
(icookielib
Cookie
p170
(dp171
g57
Nsg58
S'.ui.ptlogin2.qq.com'
p172
sg59
g169
sg60
I00
sg61
Nsg62
S'daid%3D164%26target%3Dself%26style%3D16%26mibao_css%3Dm_webqq%26appid%3D501004106%26enable_qlogin%3D0%26no_verifyimg%3D1%26s_url%3Dhttp%253A%252F%252Fw.qq.com%252Fproxy.html%26f_url%3Dloginerroralert%26strong_login%3D1%26login_state%3D10%26t%3D20131024001'
p173
sg64
I01
sg65
(dp174
sg68
I0
sg69
I00
sg70
I00
sg71
I01
sg72
I01
sg73
g52
sg74
Nsg75
Nsg76
I00
sbsS'ptui_identifier'
p175
(icookielib
Cookie
p176
(dp177
g57
Nsg58
S'.ui.ptlogin2.qq.com'
p178
sg59
g175
sg60
I00
sg61
Nsg62
S'000D768B3E2A83642ED3006C4B6D6B4A7730BBECDABA31033B538279'
p179
sg64
I01
sg65
(dp180
sg68
I0
sg69
I00
sg70
I00
sg71
I01
sg72
I01
sg73
g52
sg74
Nsg75
Nsg76
I00
sbsssS'.qq.com'
p181
(dp182
g52
(dp183
S'skey'
p184
(icookielib
Cookie
p185
(dp186
g57
Nsg58
S'.qq.com'
p187
sg59
S'skey'
p188
sg60
I00
sg61
Nsg62
S'@YjGgrJWGQ'
p189
sg64
I01
sg65
(dp190
sg68
I0
sg69
I00
sg70
I00
sg71
I01
sg72
I01
sg73
g52
sg74
Nsg75
Nsg76
I00
sbsS'ptisp'
p191
(icookielib
Cookie
p192
(dp193
g57
Nsg58
S'.qq.com'
p194
sg59
g191
sg60
I00
sg61
Nsg62
S'ctc'
p195
sg64
I01
sg65
(dp196
sg68
I0
sg69
I00
sg70
I00
sg71
I01
sg72
I01
sg73
g52
sg74
Nsg75
Nsg76
I00
sbsS'ptwebqq'
p197
(icookielib
Cookie
p198
(dp199
g57
Nsg58
S'.qq.com'
p200
sg59
g197
sg60
I00
sg61
Nsg62
S'11a738fa6fe35e61256c98d5adb677cd7ea45499da0a0c24d485d90ccb4975f5'
p201
sg64
I01
sg65
(dp202
sg68
I0
sg69
I00
sg70
I00
sg71
I01
sg72
I01
sg73
g52
sg74
Nsg75
Nsg76
I00
sbsS'pt2gguin'
p203
(icookielib
Cookie
p204
(dp205
g57
Nsg58
S'.qq.com'
p206
sg59
S'pt2gguin'
p207
sg60
I00
sg61
I1577923200
sg62
S'o1965056593'
p208
sg64
I01
sg65
(dp209
sg68
I0
sg69
I00
sg70
I00
sg71
I00
sg72
I01
sg73
g52
sg74
Nsg75
Nsg76
I00
sbsS'uin'
p210
(icookielib
Cookie
p211
(dp212
g57
Nsg58
S'.qq.com'
p213
sg59
S'uin'
p214
sg60
I00
sg61
Nsg62
S'o1965056593'
p215
sg64
I01
sg65
(dp216
sg68
I0
sg69
I00
sg70
I00
sg71
I01
sg72
I01
sg73
g52
sg74
Nsg75
Nsg76
I00
sbsssS'.web2.qq.com'
p217
(dp218
g52
(dp219
S'p_uin'
p220
(icookielib
Cookie
p221
(dp222
g57
Nsg58
g217
sg59
g220
sg60
I00
sg61
Nsg62
S'o1965056593'
p223
sg64
I01
sg65
(dp224
sg68
I0
sg69
I00
sg70
I00
sg71
I01
sg72
I01
sg73
g52
sg74
Nsg75
Nsg76
I00
sbsS'p_skey'
p225
(icookielib
Cookie
p226
(dp227
g57
Nsg58
S'.web2.qq.com'
p228
sg59
g225
sg60
I00
sg61
Nsg62
S'iPqKmSIcANvWjNXJcOdGrKTOWyxO5L4ioowk1wnehoo_'
p229
sg64
I01
sg65
(dp230
sg68
I0
sg69
I00
sg70
I00
sg71
I01
sg72
I01
sg73
g52
sg74
Nsg75
Nsg76
I00
sbsS'pt4_token'
p231
(icookielib
Cookie
p232
(dp233
g57
Nsg58
S'.web2.qq.com'
p234
sg59
g231
sg60
I00
sg61
Nsg62
S'E5uCT7gA-3GjHD4Y0jS1IFWWFSuPt6pzIVVNMmiBdL8_'
p235
sg64
I01
sg65
(dp236
sg68
I0
sg69
I00
sg70
I00
sg71
I01
sg72
I01
sg73
g52
sg74
Nsg75
Nsg76
I00
sbssssbsS'stream'
p237
I00
sS'hooks'
p238
(dp239
S'response'
p240
(lp241
ssS'auth'
p242
NsS'trust_env'
p243
I01
sS'headers'
p244
g21
(crequests.structures
CaseInsensitiveDict
p245
g23
Ntp246
Rp247
(dp248
S'_store'
p249
curllib3.packages.ordered_dict
OrderedDict
p250
((lp251
(lp252
S'connection'
p253
a(S'Connection'
p254
S'keep-alive'
p255
tp256
aa(lp257
S'accept-encoding'
p258
a(S'Accept-Encoding'
p259
S'gzip, deflate'
p260
tp261
aa(lp262
S'accept'
p263
a(S'Accept'
p264
S'*/*'
p265
tp266
aa(lp267
S'user-agent'
p268
a(S'User-Agent'
p269
S'Mozilla/5.0 (Macintosh; Intel Mac OS X 10.9; rv:27.0) Gecko/20100101 Firefox/27.0'
p270
tp271
aa(lp272
S'content-type'
p273
a(S'Content-Type'
p274
S'application/x-www-form-urlencoded; charset=UTF-8'
p275
tp276
aa(lp277
S'referer'
p278
a(S'Referer'
p279
S'http://d1.web2.qq.com/proxy.html?v=20151105001&callback=1&id=2'
p280
tp281
aa(lp282
S'origin'
p283
a(S'Origin'
p284
S'http://d1.web2.qq.com'
p285
tp286
aatp287
Rp288
sbsS'cert'
p289
NsS'params'
p290
(dp291
sS'prefetch'
p292
NsS'verify'
p293
I01
sS'proxies'
p294
(dp295
sS'adapters'
p296
g250
((lp297
(lp298
S'https://'
p299
ag21
(crequests.adapters
HTTPAdapter
p300
g23
Ntp301
Rp302
(dp303
S'_pool_block'
p304
I00
sS'_pool_maxsize'
p305
I10
sS'max_retries'
p306
g21
(curllib3.util.retry
Retry
p307
g23
Ntp308
Rp309
(dp310
S'status'
p311
NsS'redirect'
p312
NsS'read'
p313
I00
sS'backoff_factor'
p314
I0
sS'respect_retry_after_header'
p315
I01
sS'history'
p316
(tsS'raise_on_status'
p317
I01
sS'connect'
p318
NsS'status_forcelist'
p319
c__builtin__
set
p320
((lp321
tp322
Rp323
sS'total'
p324
I0
sS'raise_on_redirect'
p325
I01
sS'method_whitelist'
p326
c__builtin__
frozenset
p327
((lp328
S'HEAD'
p329
aS'TRACE'
p330
aS'GET'
p331
aS'PUT'
p332
aS'OPTIONS'
p333
aS'DELETE'
p334
atp335
Rp336
sbsS'config'
p337
(dp338
sS'_pool_connections'
p339
I10
sbaa(lp340
S'http://'
p341
ag21
(g300
g23
Ntp342
Rp343
(dp344
g304
I00
sg305
I10
sg306
g21
(g307
g23
Ntp345
Rp346
(dp347
g311
Nsg312
Nsg313
I00
sg314
I0
sg315
I01
sg316
(tsg317
I01
sg318
Nsg319
g320
((lp348
tp349
Rp350
sg324
I0
sg325
I01
sg326
g336
sbsg337
(dp351
sg339
I10
sbaatp352
Rp353
sS'max_redirects'
p354
I30
sbsS'ptwebqq'
p355
g201
sS'dbname'
p356
S'/home/ubuntu8/yumingming/xnr1/xnr/static/images/QQ/1025/2017-10-14-20-21-18-1965056593-contact.db'
p357
s.