(dp0
S'qq'
p1
S'523366597'
p2
sS'psessionid'
p3
S'8368046764001d636f6e6e7365727665725f77656271714031302e3133332e34312e383400001ad00000066b026e040015808a206d0000000a406172314338344a69526d0000002859185d94e66218548d1ecb1a12513c86126b3afb97a3c2955b1070324790733ddb059ab166de6857'
p4
sS'hash'
p5
S'595A567203BF578E'
p6
sS'dbbasename'
p7
S'2017-10-10-21-06-41-523366597-contact.db'
p8
sS'lastSendTime'
p9
I0
sS'msgId'
p10
I6000000
sS'bkn'
p11
I843055724
sS'urlPtwebqq'
p12
S'http://ptlogin2.web2.qq.com/check_sig?pttype=1&uin=523366597&service=ptqrlogin&nodirect=0&ptsigx=437549325471251edccc041399f30a032720baec6be74636ca7f34d37e6a3d5ce5a67ab9394624c4700de614ac8cd90171c6ad938807ab76bb1f69fac2611245&s_url=http%3A%2F%2Fw.qq.com%2Fproxy.html%3Flogin2qq%3D1%26webqq_type%3D10&f_url=&ptlang=2052&ptredirect=100&aid=501004106&daid=164&j_later=0&low_login_hour=0&regmaster=0&pt_login_type=3&pt_aid=0&pt_aaid=16&pt_light=0&pt_3rd_aid=0'
p13
sS'clientid'
p14
I53999199
sS'uin'
p15
I523366597
sS'nick'
p16
S'(\xef\xbd\xa1\xef\xbd\xa5\xe2\x88\x80\xef\xbd\xa5)\xef\xbe\x89'
p17
sS'vfwebqq'
p18
S'b906d3c72ee51dc356c4cc6f7351de5b931d5eaa0d28368203ce2fd6c52c7d964cadba767bc5ce5e'
p19
sS'session'
p20
ccopy_reg
_reconstructor
p21
(crequests.sessions
Session
p22
c__builtin__
object
p23
Ntp24
Rp25
(dp26
S'cookies'
p27
g21
(crequests.cookies
RequestsCookieJar
p28
g23
Ntp29
Rp30
(dp31
S'_now'
p32
I1507640806
sS'_policy'
p33
(icookielib
DefaultCookiePolicy
p34
(dp35
S'strict_rfc2965_unverifiable'
p36
I01
sS'strict_ns_domain'
p37
I0
sS'_allowed_domains'
p38
NsS'rfc2109_as_netscape'
p39
NsS'rfc2965'
p40
I00
sS'strict_domain'
p41
I00
sg32
I1507640806
sS'strict_ns_set_path'
p42
I00
sS'strict_ns_unverifiable'
p43
I00
sS'strict_ns_set_initial_dollar'
p44
I00
sS'hide_cookie2'
p45
I00
sS'_blocked_domains'
p46
(tsS'netscape'
p47
I01
sbsS'_cookies'
p48
(dp49
S''
p50
(dp51
S'/'
p52
(dp53
S'ptcz'
p54
(icookielib
Cookie
p55
(dp56
S'comment'
p57
NsS'domain'
p58
g50
sS'name'
p59
g54
sS'domain_initial_dot'
p60
I00
sS'expires'
p61
NsS'value'
p62
S'ad3bf14f9da2738e09e498bfeb93dd9da7540dea2b7a71acfb97ed4d3da4e277'
p63
sS'domain_specified'
p64
I00
sS'_rest'
p65
(dp66
S'HttpOnly'
p67
NssS'version'
p68
I0
sS'port_specified'
p69
I00
sS'rfc2109'
p70
I00
sS'discard'
p71
I01
sS'path_specified'
p72
I01
sS'path'
p73
g52
sS'port'
p74
NsS'comment_url'
p75
NsS'secure'
p76
I00
sbsS'pgv_pvi'
p77
(icookielib
Cookie
p78
(dp79
g57
Nsg58
g50
sg59
g77
sg60
I00
sg61
Nsg62
S'911366144'
p80
sg64
I00
sg65
(dp81
g67
Nssg68
I0
sg69
I00
sg70
I00
sg71
I01
sg72
I01
sg73
g52
sg74
Nsg75
Nsg76
I00
sbsS'pgv_info'
p82
(icookielib
Cookie
p83
(dp84
g57
Nsg58
g50
sg59
g82
sg60
I00
sg61
Nsg62
S'ssid pgv_pvid=1051433466'
p85
sg64
I00
sg65
(dp86
g67
Nssg68
I0
sg69
I00
sg70
I00
sg71
I01
sg72
I01
sg73
g52
sg74
Nsg75
Nsg76
I00
sbsS'RK'
p87
(icookielib
Cookie
p88
(dp89
g57
Nsg58
g50
sg59
g87
sg60
I00
sg61
Nsg62
S'OfeLBai4FB'
p90
sg64
I00
sg65
(dp91
g67
Nssg68
I0
sg69
I00
sg70
I00
sg71
I01
sg72
I01
sg73
g52
sg74
Nsg75
Nsg76
I00
sbsssS'.ptlogin2.qq.com'
p92
(dp93
g52
(dp94
S'pt_login_sig'
p95
(icookielib
Cookie
p96
(dp97
g57
Nsg58
g92
sg59
g95
sg60
I00
sg61
Nsg62
S'hv883JCfNxW18RoqAhZSSUUuQOzHou2VWkmW2NyX3D3PruNheZBcxF9V59GnPKI8'
p98
sg64
I01
sg65
(dp99
sg68
I0
sg69
I00
sg70
I00
sg71
I01
sg72
I01
sg73
g52
sg74
Nsg75
Nsg76
I00
sbsS'qrsig'
p100
(icookielib
Cookie
p101
(dp102
g57
Nsg58
S'.ptlogin2.qq.com'
p103
sg59
g100
sg60
I00
sg61
Nsg62
S'9eziyuJ08zURhYop6T4DEvc-1ZC2Fm4ngSI3rqQveOFk9NmkN16oFKfPbZP764EJ'
p104
sg64
I01
sg65
(dp105
sg68
I0
sg69
I00
sg70
I00
sg71
I01
sg72
I01
sg73
g52
sg74
Nsg75
Nsg76
I00
sbsS'pt_serverip'
p106
(icookielib
Cookie
p107
(dp108
g57
Nsg58
S'.ptlogin2.qq.com'
p109
sg59
g106
sg60
I00
sg61
Nsg62
S'920a0af49209d0df'
p110
sg64
I01
sg65
(dp111
sg68
I0
sg69
I00
sg70
I00
sg71
I01
sg72
I01
sg73
g52
sg74
Nsg75
Nsg76
I00
sbsS'supertoken'
p112
(icookielib
Cookie
p113
(dp114
g57
Nsg58
S'.ptlogin2.qq.com'
p115
sg59
g112
sg60
I00
sg61
Nsg62
S'1784754687'
p116
sg64
I01
sg65
(dp117
sg68
I0
sg69
I00
sg70
I00
sg71
I01
sg72
I01
sg73
g52
sg74
Nsg75
Nsg76
I00
sbsS'pt_recent_uins'
p118
(icookielib
Cookie
p119
(dp120
g57
Nsg58
S'.ptlogin2.qq.com'
p121
sg59
g118
sg60
I00
sg61
I1510232801
sg62
S'60bed90984729bbb5da53e657a6e2ec21c911da1c5c1e06235aa70dabc77b5cae13e46b26d5a326d92ff4d450984a1c9c505319a63ce0c62'
p122
sg64
I01
sg65
(dp123
S'HttpOnly'
p124
Nssg68
I0
sg69
I00
sg70
I00
sg71
I00
sg72
I01
sg73
g52
sg74
Nsg75
Nsg76
I00
sbsS'ptnick_523366597'
p125
(icookielib
Cookie
p126
(dp127
g57
Nsg58
S'.ptlogin2.qq.com'
p128
sg59
g125
sg60
I00
sg61
Nsg62
S'28efbda1efbda5e28880efbda529efbe89'
p129
sg64
I01
sg65
(dp130
sg68
I0
sg69
I00
sg70
I00
sg71
I01
sg72
I01
sg73
g52
sg74
Nsg75
Nsg76
I00
sbsS'ETK'
p131
(icookielib
Cookie
p132
(dp133
g57
Nsg58
S'.ptlogin2.qq.com'
p134
sg59
g131
sg60
I00
sg61
Nsg62
g50
sg64
I01
sg65
(dp135
sg68
I0
sg69
I00
sg70
I00
sg71
I01
sg72
I01
sg73
g52
sg74
Nsg75
Nsg76
I00
sbsS'pt_clientip'
p136
(icookielib
Cookie
p137
(dp138
g57
Nsg58
S'.ptlogin2.qq.com'
p139
sg59
g136
sg60
I00
sg61
Nsg62
S'894edbefe3ddce93'
p140
sg64
I01
sg65
(dp141
sg68
I0
sg69
I00
sg70
I00
sg71
I01
sg72
I01
sg73
g52
sg74
Nsg75
Nsg76
I00
sbsS'superkey'
p142
(icookielib
Cookie
p143
(dp144
g57
Nsg58
S'.ptlogin2.qq.com'
p145
sg59
g142
sg60
I00
sg61
Nsg62
S'bnlRVLtyAsWSKQCzTLOI9XbQdTK2W2fYysWySC1gOJ0_'
p146
sg64
I01
sg65
(dp147
S'HttpOnly'
p148
Nssg68
I0
sg69
I00
sg70
I00
sg71
I01
sg72
I01
sg73
g52
sg74
Nsg75
Nsg76
I00
sbsS'superuin'
p149
(icookielib
Cookie
p150
(dp151
g57
Nsg58
S'.ptlogin2.qq.com'
p152
sg59
g149
sg60
I00
sg61
Nsg62
S'o0523366597'
p153
sg64
I01
sg65
(dp154
sg68
I0
sg69
I00
sg70
I00
sg71
I01
sg72
I01
sg73
g52
sg74
Nsg75
Nsg76
I00
sbsssS'.ui.ptlogin2.qq.com'
p155
(dp156
g52
(dp157
S'pt_user_id'
p158
(icookielib
Cookie
p159
(dp160
g57
Nsg58
g155
sg59
g158
sg60
I00
sg61
I1823000695
sg62
S'13446614403417675799'
p161
sg64
I01
sg65
(dp162
sg68
I0
sg69
I00
sg70
I00
sg71
I00
sg72
I01
sg73
g52
sg74
Nsg75
Nsg76
I00
sbsssS'.qq.com'
p163
(dp164
g52
(dp165
S'skey'
p166
(icookielib
Cookie
p167
(dp168
g57
Nsg58
S'.qq.com'
p169
sg59
S'skey'
p170
sg60
I00
sg61
Nsg62
S'@1IWEIT34M'
p171
sg64
I01
sg65
(dp172
sg68
I0
sg69
I00
sg70
I00
sg71
I01
sg72
I01
sg73
g52
sg74
Nsg75
Nsg76
I00
sbsS'ptwebqq'
p173
(icookielib
Cookie
p174
(dp175
g57
Nsg58
S'.qq.com'
p176
sg59
g173
sg60
I00
sg61
Nsg62
S'2f0bfc3d2482e873364a2edad4449a912ee74fb56d5220208dd16b642014881d'
p177
sg64
I01
sg65
(dp178
sg68
I0
sg69
I00
sg70
I00
sg71
I01
sg72
I01
sg73
g52
sg74
Nsg75
Nsg76
I00
sbsS'pt2gguin'
p179
(icookielib
Cookie
p180
(dp181
g57
Nsg58
S'.qq.com'
p182
sg59
S'pt2gguin'
p183
sg60
I00
sg61
I1577923200
sg62
S'o0523366597'
p184
sg64
I01
sg65
(dp185
sg68
I0
sg69
I00
sg70
I00
sg71
I00
sg72
I01
sg73
g52
sg74
Nsg75
Nsg76
I00
sbsS'uin'
p186
(icookielib
Cookie
p187
(dp188
g57
Nsg58
S'.qq.com'
p189
sg59
S'uin'
p190
sg60
I00
sg61
Nsg62
S'o0523366597'
p191
sg64
I01
sg65
(dp192
sg68
I0
sg69
I00
sg70
I00
sg71
I01
sg72
I01
sg73
g52
sg74
Nsg75
Nsg76
I00
sbsssS'.web2.qq.com'
p193
(dp194
g52
(dp195
S'p_uin'
p196
(icookielib
Cookie
p197
(dp198
g57
Nsg58
g193
sg59
g196
sg60
I00
sg61
Nsg62
S'o0523366597'
p199
sg64
I01
sg65
(dp200
sg68
I0
sg69
I00
sg70
I00
sg71
I01
sg72
I01
sg73
g52
sg74
Nsg75
Nsg76
I00
sbsS'p_skey'
p201
(icookielib
Cookie
p202
(dp203
g57
Nsg58
S'.web2.qq.com'
p204
sg59
g201
sg60
I00
sg61
Nsg62
S'98s7KIL7GUlflDJHcTvc9TkGfkMMVGXGB7MtzUB6jjM_'
p205
sg64
I01
sg65
(dp206
sg68
I0
sg69
I00
sg70
I00
sg71
I01
sg72
I01
sg73
g52
sg74
Nsg75
Nsg76
I00
sbsS'pt4_token'
p207
(icookielib
Cookie
p208
(dp209
g57
Nsg58
S'.web2.qq.com'
p210
sg59
g207
sg60
I00
sg61
Nsg62
S'OoXh8k*MsEsTQocwJLl*VY4JdCDUQJ6-LWyLQY6kGS8_'
p211
sg64
I01
sg65
(dp212
sg68
I0
sg69
I00
sg70
I00
sg71
I01
sg72
I01
sg73
g52
sg74
Nsg75
Nsg76
I00
sbssssbsS'stream'
p213
I00
sS'hooks'
p214
(dp215
S'response'
p216
(lp217
ssS'auth'
p218
NsS'trust_env'
p219
I01
sS'headers'
p220
g21
(crequests.structures
CaseInsensitiveDict
p221
g23
Ntp222
Rp223
(dp224
S'_store'
p225
curllib3.packages.ordered_dict
OrderedDict
p226
((lp227
(lp228
S'connection'
p229
a(S'Connection'
p230
S'keep-alive'
p231
tp232
aa(lp233
S'accept-encoding'
p234
a(S'Accept-Encoding'
p235
S'gzip, deflate'
p236
tp237
aa(lp238
S'accept'
p239
a(S'Accept'
p240
S'*/*'
p241
tp242
aa(lp243
S'user-agent'
p244
a(S'User-Agent'
p245
S'Mozilla/5.0 (Macintosh; Intel Mac OS X 10.9; rv:27.0) Gecko/20100101 Firefox/27.0'
p246
tp247
aa(lp248
S'content-type'
p249
a(S'Content-Type'
p250
S'application/x-www-form-urlencoded; charset=UTF-8'
p251
tp252
aa(lp253
S'referer'
p254
a(S'Referer'
p255
S'http://d1.web2.qq.com/proxy.html?v=20151105001&callback=1&id=2'
p256
tp257
aa(lp258
S'origin'
p259
a(S'Origin'
p260
S'http://d1.web2.qq.com'
p261
tp262
aatp263
Rp264
sbsS'cert'
p265
NsS'params'
p266
(dp267
sS'prefetch'
p268
NsS'verify'
p269
I01
sS'proxies'
p270
(dp271
sS'adapters'
p272
g226
((lp273
(lp274
S'https://'
p275
ag21
(crequests.adapters
HTTPAdapter
p276
g23
Ntp277
Rp278
(dp279
S'_pool_block'
p280
I00
sS'_pool_maxsize'
p281
I10
sS'max_retries'
p282
g21
(curllib3.util.retry
Retry
p283
g23
Ntp284
Rp285
(dp286
S'status'
p287
NsS'redirect'
p288
NsS'read'
p289
I00
sS'backoff_factor'
p290
I0
sS'respect_retry_after_header'
p291
I01
sS'history'
p292
(tsS'raise_on_status'
p293
I01
sS'connect'
p294
NsS'status_forcelist'
p295
c__builtin__
set
p296
((lp297
tp298
Rp299
sS'total'
p300
I0
sS'raise_on_redirect'
p301
I01
sS'method_whitelist'
p302
c__builtin__
frozenset
p303
((lp304
S'HEAD'
p305
aS'TRACE'
p306
aS'GET'
p307
aS'PUT'
p308
aS'OPTIONS'
p309
aS'DELETE'
p310
atp311
Rp312
sbsS'config'
p313
(dp314
sS'_pool_connections'
p315
I10
sbaa(lp316
S'http://'
p317
ag21
(g276
g23
Ntp318
Rp319
(dp320
g280
I00
sg281
I10
sg282
g21
(g283
g23
Ntp321
Rp322
(dp323
g287
Nsg288
Nsg289
I00
sg290
I0
sg291
I01
sg292
(tsg293
I01
sg294
Nsg295
g296
((lp324
tp325
Rp326
sg300
I0
sg301
I01
sg302
g312
sbsg313
(dp327
sg315
I10
sbaatp328
Rp329
sS'max_redirects'
p330
I30
sbsS'ptwebqq'
p331
g177
sS'dbname'
p332
S'/home/ubuntu8/yumingming/xnr1/xnr/static/images/QQ/1026/2017-10-10-21-06-41-523366597-contact.db'
p333
s.