(dp0
S'qq'
p1
S'1290605918'
p2
sS'psessionid'
p3
S'8368046764001d636f6e6e7365727665725f77656271714031302e3133332e34312e383400001ad00000066b026e040015808a206d0000000a406172314338344a69526d0000002859185d94e66218548d1ecb1a12513c86126b3afb97a3c2955b1070324790733ddb059ab166de6857'
p4
sS'hash'
p5
S'5A0952AE5A5A0E15'
p6
sS'dbbasename'
p7
S'2017-10-19-14-46-59-1290605918-contact.db'
p8
sS'lastSendTime'
p9
I0
sS'msgId'
p10
I6000000
sS'bkn'
p11
I1816234474
sS'urlPtwebqq'
p12
S'http://ptlogin2.web2.qq.com/check_sig?pttype=1&uin=1290605918&service=ptqrlogin&nodirect=0&ptsigx=1e6ce6d9382bf24dee75bd5e9fadd513dc5330df046de6a2c1e79ad84cc92da3326eba28116b7e2f797bcb94798a5c3b3a749948631c8d4736c74470a1cd914a&s_url=http%3A%2F%2Fw.qq.com%2Fproxy.html%3Flogin2qq%3D1%26webqq_type%3D10&f_url=&ptlang=2052&ptredirect=100&aid=501004106&daid=164&j_later=0&low_login_hour=0&regmaster=0&pt_login_type=3&pt_aid=0&pt_aaid=16&pt_light=0&pt_3rd_aid=0'
p13
sS'clientid'
p14
I53999199
sS'uin'
p15
I1290605918
sS'nick'
p16
S'\xe9\xac\xbc\xe5\x84\xbf\\/'
p17
sS'vfwebqq'
p18
S'0a4a3490d6375903b60b8f52231312dfefb9c76c2c86d0758a2cfff3f9da7fc7d9f2ac2c8ec375f2'
p19
sS'session'
p20
ccopy_reg
_reconstructor
p21
(crequests.sessions
Session
p22
c__builtin__
object
p23
Ntp24
Rp25
(dp26
S'cookies'
p27
g21
(crequests.cookies
RequestsCookieJar
p28
g23
Ntp29
Rp30
(dp31
S'_now'
p32
I1508395620
sS'_policy'
p33
(icookielib
DefaultCookiePolicy
p34
(dp35
S'strict_rfc2965_unverifiable'
p36
I01
sS'strict_ns_domain'
p37
I0
sS'_allowed_domains'
p38
NsS'rfc2109_as_netscape'
p39
NsS'rfc2965'
p40
I00
sS'strict_domain'
p41
I00
sg32
I1508395620
sS'strict_ns_set_path'
p42
I00
sS'strict_ns_unverifiable'
p43
I00
sS'strict_ns_set_initial_dollar'
p44
I00
sS'hide_cookie2'
p45
I00
sS'_blocked_domains'
p46
(tsS'netscape'
p47
I01
sbsS'_cookies'
p48
(dp49
S''
p50
(dp51
S'/'
p52
(dp53
S'ptcz'
p54
(icookielib
Cookie
p55
(dp56
S'comment'
p57
NsS'domain'
p58
g50
sS'name'
p59
g54
sS'domain_initial_dot'
p60
I00
sS'expires'
p61
NsS'value'
p62
S'ad3bf14f9da2738e09e498bfeb93dd9da7540dea2b7a71acfb97ed4d3da4e277'
p63
sS'domain_specified'
p64
I00
sS'_rest'
p65
(dp66
S'HttpOnly'
p67
NssS'version'
p68
I0
sS'port_specified'
p69
I00
sS'rfc2109'
p70
I00
sS'discard'
p71
I01
sS'path_specified'
p72
I01
sS'path'
p73
g52
sS'port'
p74
NsS'comment_url'
p75
NsS'secure'
p76
I00
sbsS'pgv_pvi'
p77
(icookielib
Cookie
p78
(dp79
g57
Nsg58
g50
sg59
g77
sg60
I00
sg61
Nsg62
S'911366144'
p80
sg64
I00
sg65
(dp81
g67
Nssg68
I0
sg69
I00
sg70
I00
sg71
I01
sg72
I01
sg73
g52
sg74
Nsg75
Nsg76
I00
sbsS'pgv_info'
p82
(icookielib
Cookie
p83
(dp84
g57
Nsg58
g50
sg59
g82
sg60
I00
sg61
Nsg62
S'ssid pgv_pvid=1051433466'
p85
sg64
I00
sg65
(dp86
g67
Nssg68
I0
sg69
I00
sg70
I00
sg71
I01
sg72
I01
sg73
g52
sg74
Nsg75
Nsg76
I00
sbsS'RK'
p87
(icookielib
Cookie
p88
(dp89
g57
Nsg58
g50
sg59
g87
sg60
I00
sg61
Nsg62
S'OfeLBai4FB'
p90
sg64
I00
sg65
(dp91
g67
Nssg68
I0
sg69
I00
sg70
I00
sg71
I01
sg72
I01
sg73
g52
sg74
Nsg75
Nsg76
I00
sbsssS'.ptlogin2.qq.com'
p92
(dp93
g52
(dp94
S'pt_login_sig'
p95
(icookielib
Cookie
p96
(dp97
g57
Nsg58
g92
sg59
g95
sg60
I00
sg61
Nsg62
S'NnEuNn51s8GMwHQg9z10zJ3WYrHUHBBkzbLMyZz2Sm-xUBt0oukbLOFmPCz6khOa'
p98
sg64
I01
sg65
(dp99
sg68
I0
sg69
I00
sg70
I00
sg71
I01
sg72
I01
sg73
g52
sg74
Nsg75
Nsg76
I00
sbsS'qrsig'
p100
(icookielib
Cookie
p101
(dp102
g57
Nsg58
S'.ptlogin2.qq.com'
p103
sg59
S'qrsig'
p104
sg60
I00
sg61
Nsg62
S'6K*DMGuYvU2Ap4b1MjPv*J5GqcV-c8*I0nIIFm5vGgelDoYEekQAAyfoo3wp1aX-'
p105
sg64
I01
sg65
(dp106
sg68
I0
sg69
I00
sg70
I00
sg71
I01
sg72
I01
sg73
g52
sg74
Nsg75
Nsg76
I00
sbsS'pt_serverip'
p107
(icookielib
Cookie
p108
(dp109
g57
Nsg58
S'.ptlogin2.qq.com'
p110
sg59
g107
sg60
I00
sg61
Nsg62
S'425b0aa8825b1163'
p111
sg64
I01
sg65
(dp112
sg68
I0
sg69
I00
sg70
I00
sg71
I01
sg72
I01
sg73
g52
sg74
Nsg75
Nsg76
I00
sbsS'supertoken'
p113
(icookielib
Cookie
p114
(dp115
g57
Nsg58
S'.ptlogin2.qq.com'
p116
sg59
g113
sg60
I00
sg61
Nsg62
S'2356439639'
p117
sg64
I01
sg65
(dp118
sg68
I0
sg69
I00
sg70
I00
sg71
I01
sg72
I01
sg73
g52
sg74
Nsg75
Nsg76
I00
sbsS'pt_recent_uins'
p119
(icookielib
Cookie
p120
(dp121
g57
Nsg58
S'.ptlogin2.qq.com'
p122
sg59
g119
sg60
I00
sg61
I1510987619
sg62
S'4dc474e400eaf0af8d71cc2bc81311644b8a5ec4d01c18d0cc8edc7cc01b64dc7fc6fed1b7f8004db2f162b9cc739a510792196166c36f9b'
p123
sg64
I01
sg65
(dp124
S'HttpOnly'
p125
Nssg68
I0
sg69
I00
sg70
I00
sg71
I00
sg72
I01
sg73
g52
sg74
Nsg75
Nsg76
I00
sbsS'ptnick_1290605918'
p126
(icookielib
Cookie
p127
(dp128
g57
Nsg58
S'.ptlogin2.qq.com'
p129
sg59
g126
sg60
I00
sg61
Nsg62
S'e9acbce584bf2f'
p130
sg64
I01
sg65
(dp131
sg68
I0
sg69
I00
sg70
I00
sg71
I01
sg72
I01
sg73
g52
sg74
Nsg75
Nsg76
I00
sbsS'ETK'
p132
(icookielib
Cookie
p133
(dp134
g57
Nsg58
S'.ptlogin2.qq.com'
p135
sg59
g132
sg60
I00
sg61
Nsg62
g50
sg64
I01
sg65
(dp136
sg68
I0
sg69
I00
sg70
I00
sg71
I01
sg72
I01
sg73
g52
sg74
Nsg75
Nsg76
I00
sbsS'pt_clientip'
p137
(icookielib
Cookie
p138
(dp139
g57
Nsg58
S'.ptlogin2.qq.com'
p140
sg59
g137
sg60
I00
sg61
Nsg62
S'03936a272991f8ea'
p141
sg64
I01
sg65
(dp142
sg68
I0
sg69
I00
sg70
I00
sg71
I01
sg72
I01
sg73
g52
sg74
Nsg75
Nsg76
I00
sbsS'superkey'
p143
(icookielib
Cookie
p144
(dp145
g57
Nsg58
S'.ptlogin2.qq.com'
p146
sg59
g143
sg60
I00
sg61
Nsg62
S'*eBTg5hiTxUvf49C9nVfExFBzarq3L8Z8hRVAje5xno_'
p147
sg64
I01
sg65
(dp148
S'HttpOnly'
p149
Nssg68
I0
sg69
I00
sg70
I00
sg71
I01
sg72
I01
sg73
g52
sg74
Nsg75
Nsg76
I00
sbsS'superuin'
p150
(icookielib
Cookie
p151
(dp152
g57
Nsg58
S'.ptlogin2.qq.com'
p153
sg59
g150
sg60
I00
sg61
Nsg62
S'o1290605918'
p154
sg64
I01
sg65
(dp155
sg68
I0
sg69
I00
sg70
I00
sg71
I01
sg72
I01
sg73
g52
sg74
Nsg75
Nsg76
I00
sbsssS'.ui.ptlogin2.qq.com'
p156
(dp157
g52
(dp158
S'pt_user_id'
p159
(icookielib
Cookie
p160
(dp161
g57
Nsg58
g156
sg59
g159
sg60
I00
sg61
I1823755471
sg62
S'12197346693856719519'
p162
sg64
I01
sg65
(dp163
sg68
I0
sg69
I00
sg70
I00
sg71
I00
sg72
I01
sg73
g52
sg74
Nsg75
Nsg76
I00
sbsS'ptui_identifier'
p164
(icookielib
Cookie
p165
(dp166
g57
Nsg58
S'.ui.ptlogin2.qq.com'
p167
sg59
g164
sg60
I00
sg61
Nsg62
S'000DC2D9D4EFD746E0A95AB35369B9052B91CD14A1CA1DE6803C5228'
p168
sg64
I01
sg65
(dp169
sg68
I0
sg69
I00
sg70
I00
sg71
I01
sg72
I01
sg73
g52
sg74
Nsg75
Nsg76
I00
sbsssS'.qq.com'
p170
(dp171
g52
(dp172
S'skey'
p173
(icookielib
Cookie
p174
(dp175
g57
Nsg58
S'.qq.com'
p176
sg59
S'skey'
p177
sg60
I00
sg61
Nsg62
S'@EGEnorpjK'
p178
sg64
I01
sg65
(dp179
sg68
I0
sg69
I00
sg70
I00
sg71
I01
sg72
I01
sg73
g52
sg74
Nsg75
Nsg76
I00
sbsS'ptisp'
p180
(icookielib
Cookie
p181
(dp182
g57
Nsg58
S'.qq.com'
p183
sg59
g180
sg60
I00
sg61
Nsg62
S'ctc'
p184
sg64
I01
sg65
(dp185
sg68
I0
sg69
I00
sg70
I00
sg71
I01
sg72
I01
sg73
g52
sg74
Nsg75
Nsg76
I00
sbsS'ptwebqq'
p186
(icookielib
Cookie
p187
(dp188
g57
Nsg58
S'.qq.com'
p189
sg59
g186
sg60
I00
sg61
Nsg62
S'ee8a49e763ee6e29387bd64589bae7160a1fc75083a745ef89cd17bdbc605e73'
p190
sg64
I01
sg65
(dp191
sg68
I0
sg69
I00
sg70
I00
sg71
I01
sg72
I01
sg73
g52
sg74
Nsg75
Nsg76
I00
sbsS'pt2gguin'
p192
(icookielib
Cookie
p193
(dp194
g57
Nsg58
S'.qq.com'
p195
sg59
S'pt2gguin'
p196
sg60
I00
sg61
I1577923200
sg62
S'o1290605918'
p197
sg64
I01
sg65
(dp198
sg68
I0
sg69
I00
sg70
I00
sg71
I00
sg72
I01
sg73
g52
sg74
Nsg75
Nsg76
I00
sbsS'uin'
p199
(icookielib
Cookie
p200
(dp201
g57
Nsg58
S'.qq.com'
p202
sg59
S'uin'
p203
sg60
I00
sg61
Nsg62
S'o1290605918'
p204
sg64
I01
sg65
(dp205
sg68
I0
sg69
I00
sg70
I00
sg71
I01
sg72
I01
sg73
g52
sg74
Nsg75
Nsg76
I00
sbsssS'.web2.qq.com'
p206
(dp207
g52
(dp208
S'p_uin'
p209
(icookielib
Cookie
p210
(dp211
g57
Nsg58
g206
sg59
g209
sg60
I00
sg61
Nsg62
S'o1290605918'
p212
sg64
I01
sg65
(dp213
sg68
I0
sg69
I00
sg70
I00
sg71
I01
sg72
I01
sg73
g52
sg74
Nsg75
Nsg76
I00
sbsS'p_skey'
p214
(icookielib
Cookie
p215
(dp216
g57
Nsg58
S'.web2.qq.com'
p217
sg59
g214
sg60
I00
sg61
Nsg62
S'tXcUTeb2q-bvZ1f4pfbuKMmhUF015RhQNPjRIHdy2kI_'
p218
sg64
I01
sg65
(dp219
sg68
I0
sg69
I00
sg70
I00
sg71
I01
sg72
I01
sg73
g52
sg74
Nsg75
Nsg76
I00
sbsS'pt4_token'
p220
(icookielib
Cookie
p221
(dp222
g57
Nsg58
S'.web2.qq.com'
p223
sg59
g220
sg60
I00
sg61
Nsg62
S'yBRil0g2pNrXm7KfbFttgEoQqLxJ6z4IGHul3A1Wwts_'
p224
sg64
I01
sg65
(dp225
sg68
I0
sg69
I00
sg70
I00
sg71
I01
sg72
I01
sg73
g52
sg74
Nsg75
Nsg76
I00
sbssssbsS'stream'
p226
I00
sS'hooks'
p227
(dp228
S'response'
p229
(lp230
ssS'auth'
p231
NsS'trust_env'
p232
I01
sS'headers'
p233
g21
(crequests.structures
CaseInsensitiveDict
p234
g23
Ntp235
Rp236
(dp237
S'_store'
p238
curllib3.packages.ordered_dict
OrderedDict
p239
((lp240
(lp241
S'connection'
p242
a(S'Connection'
p243
S'keep-alive'
p244
tp245
aa(lp246
S'accept-encoding'
p247
a(S'Accept-Encoding'
p248
S'gzip, deflate'
p249
tp250
aa(lp251
S'accept'
p252
a(S'Accept'
p253
S'*/*'
p254
tp255
aa(lp256
S'user-agent'
p257
a(S'User-Agent'
p258
S'Mozilla/5.0 (Macintosh; Intel Mac OS X 10.9; rv:27.0) Gecko/20100101 Firefox/27.0'
p259
tp260
aa(lp261
S'content-type'
p262
a(S'Content-Type'
p263
S'application/x-www-form-urlencoded; charset=UTF-8'
p264
tp265
aa(lp266
S'referer'
p267
a(S'Referer'
p268
S'http://d1.web2.qq.com/proxy.html?v=20151105001&callback=1&id=2'
p269
tp270
aa(lp271
S'origin'
p272
a(S'Origin'
p273
S'http://d1.web2.qq.com'
p274
tp275
aatp276
Rp277
sbsS'cert'
p278
NsS'params'
p279
(dp280
sS'prefetch'
p281
NsS'verify'
p282
I01
sS'proxies'
p283
(dp284
sS'adapters'
p285
g239
((lp286
(lp287
S'https://'
p288
ag21
(crequests.adapters
HTTPAdapter
p289
g23
Ntp290
Rp291
(dp292
S'_pool_block'
p293
I00
sS'_pool_maxsize'
p294
I10
sS'max_retries'
p295
g21
(curllib3.util.retry
Retry
p296
g23
Ntp297
Rp298
(dp299
S'status'
p300
NsS'redirect'
p301
NsS'read'
p302
I00
sS'backoff_factor'
p303
I0
sS'respect_retry_after_header'
p304
I01
sS'history'
p305
(tsS'raise_on_status'
p306
I01
sS'connect'
p307
NsS'status_forcelist'
p308
c__builtin__
set
p309
((lp310
tp311
Rp312
sS'total'
p313
I0
sS'raise_on_redirect'
p314
I01
sS'method_whitelist'
p315
c__builtin__
frozenset
p316
((lp317
S'HEAD'
p318
aS'TRACE'
p319
aS'GET'
p320
aS'PUT'
p321
aS'OPTIONS'
p322
aS'DELETE'
p323
atp324
Rp325
sbsS'config'
p326
(dp327
sS'_pool_connections'
p328
I10
sbaa(lp329
S'http://'
p330
ag21
(g289
g23
Ntp331
Rp332
(dp333
g293
I00
sg294
I10
sg295
g21
(g296
g23
Ntp334
Rp335
(dp336
g300
Nsg301
Nsg302
I00
sg303
I0
sg304
I01
sg305
(tsg306
I01
sg307
Nsg308
g309
((lp337
tp338
Rp339
sg313
I0
sg314
I01
sg315
g325
sbsg326
(dp340
sg328
I10
sbaatp341
Rp342
sS'max_redirects'
p343
I30
sbsS'ptwebqq'
p344
g190
sS'dbname'
p345
S'/home/ubuntu8/yumingming/xnr1/xnr/static/images/QQ/1028/2017-10-19-14-46-59-1290605918-contact.db'
p346
s.