(dp0
S'qq'
p1
S'523366597'
p2
sS'psessionid'
p3
S'8368046764001d636f6e6e7365727665725f77656271714031302e3133332e34312e383400001ad00000066b026e040015808a206d0000000a406172314338344a69526d0000002859185d94e66218548d1ecb1a12513c86126b3afb97a3c2955b1070324790733ddb059ab166de6857'
p4
sS'hash'
p5
S'5F5A0D720BBF078E'
p6
sS'dbbasename'
p7
S'2017-09-29-09-34-13-523366597-contact.db'
p8
sS'lastSendTime'
p9
I0
sS'msgId'
p10
I6000000
sS'bkn'
p11
I1828906109
sS'urlPtwebqq'
p12
S'http://ptlogin2.web2.qq.com/check_sig?pttype=1&uin=523366597&service=ptqrlogin&nodirect=0&ptsigx=3f9055a9664fd58a7eeff592744a6acf98a7ebe56ab0c90c40cf6368572aede17ce56fd7c1b8689d1f0df92f09677209f3775586bd168db860ae216ec7c7087e&s_url=http%3A%2F%2Fw.qq.com%2Fproxy.html%3Flogin2qq%3D1%26webqq_type%3D10&f_url=&ptlang=2052&ptredirect=100&aid=501004106&daid=164&j_later=0&low_login_hour=0&regmaster=0&pt_login_type=3&pt_aid=0&pt_aaid=16&pt_light=0&pt_3rd_aid=0'
p13
sS'clientid'
p14
I53999199
sS'uin'
p15
I523366597
sS'nick'
p16
S'(\xef\xbd\xa1\xef\xbd\xa5\xe2\x88\x80\xef\xbd\xa5)\xef\xbe\x89'
p17
sS'vfwebqq'
p18
S'5618f6c5b045faf4351bdc631dbbb50e55b1f08d59e86c2590b10ca5f10f83531e31a8d5a8d49881'
p19
sS'session'
p20
ccopy_reg
_reconstructor
p21
(crequests.sessions
Session
p22
c__builtin__
object
p23
Ntp24
Rp25
(dp26
S'cookies'
p27
g21
(crequests.cookies
RequestsCookieJar
p28
g23
Ntp29
Rp30
(dp31
S'_now'
p32
I1506648853
sS'_policy'
p33
(icookielib
DefaultCookiePolicy
p34
(dp35
S'strict_rfc2965_unverifiable'
p36
I01
sS'strict_ns_domain'
p37
I0
sS'_allowed_domains'
p38
NsS'rfc2109_as_netscape'
p39
NsS'rfc2965'
p40
I00
sS'strict_domain'
p41
I00
sg32
I1506648853
sS'strict_ns_set_path'
p42
I00
sS'strict_ns_unverifiable'
p43
I00
sS'strict_ns_set_initial_dollar'
p44
I00
sS'hide_cookie2'
p45
I00
sS'_blocked_domains'
p46
(tsS'netscape'
p47
I01
sbsS'_cookies'
p48
(dp49
S''
p50
(dp51
S'/'
p52
(dp53
S'ptcz'
p54
(icookielib
Cookie
p55
(dp56
S'comment'
p57
NsS'domain'
p58
g50
sS'name'
p59
g54
sS'domain_initial_dot'
p60
I00
sS'expires'
p61
NsS'value'
p62
S'ad3bf14f9da2738e09e498bfeb93dd9da7540dea2b7a71acfb97ed4d3da4e277'
p63
sS'domain_specified'
p64
I00
sS'_rest'
p65
(dp66
S'HttpOnly'
p67
NssS'version'
p68
I0
sS'port_specified'
p69
I00
sS'rfc2109'
p70
I00
sS'discard'
p71
I01
sS'path_specified'
p72
I01
sS'path'
p73
g52
sS'port'
p74
NsS'comment_url'
p75
NsS'secure'
p76
I00
sbsS'pgv_pvi'
p77
(icookielib
Cookie
p78
(dp79
g57
Nsg58
g50
sg59
g77
sg60
I00
sg61
Nsg62
S'911366144'
p80
sg64
I00
sg65
(dp81
g67
Nssg68
I0
sg69
I00
sg70
I00
sg71
I01
sg72
I01
sg73
g52
sg74
Nsg75
Nsg76
I00
sbsS'pgv_info'
p82
(icookielib
Cookie
p83
(dp84
g57
Nsg58
g50
sg59
g82
sg60
I00
sg61
Nsg62
S'ssid pgv_pvid=1051433466'
p85
sg64
I00
sg65
(dp86
g67
Nssg68
I0
sg69
I00
sg70
I00
sg71
I01
sg72
I01
sg73
g52
sg74
Nsg75
Nsg76
I00
sbsS'RK'
p87
(icookielib
Cookie
p88
(dp89
g57
Nsg58
g50
sg59
g87
sg60
I00
sg61
Nsg62
S'OfeLBai4FB'
p90
sg64
I00
sg65
(dp91
g67
Nssg68
I0
sg69
I00
sg70
I00
sg71
I01
sg72
I01
sg73
g52
sg74
Nsg75
Nsg76
I00
sbsssS'.ptlogin2.qq.com'
p92
(dp93
g52
(dp94
S'pt_login_sig'
p95
(icookielib
Cookie
p96
(dp97
g57
Nsg58
g92
sg59
g95
sg60
I00
sg61
Nsg62
S'F*48YnEccyOGHM0iZ7KjsejtXvd6xquVmtdStGXkXULCGn1kf-KFafiw4KrAUgFj'
p98
sg64
I01
sg65
(dp99
sg68
I0
sg69
I00
sg70
I00
sg71
I01
sg72
I01
sg73
g52
sg74
Nsg75
Nsg76
I00
sbsS'qrsig'
p100
(icookielib
Cookie
p101
(dp102
g57
Nsg58
S'.ptlogin2.qq.com'
p103
sg59
g100
sg60
I00
sg61
Nsg62
S'FUqVA1XyOa5hlfbHt-hBj4RlrPo2ORE8d7nDADZ01Fd7TInXSVHOcDIN8SwOIYJK'
p104
sg64
I01
sg65
(dp105
sg68
I0
sg69
I00
sg70
I00
sg71
I01
sg72
I01
sg73
g52
sg74
Nsg75
Nsg76
I00
sbsS'pt_serverip'
p106
(icookielib
Cookie
p107
(dp108
g57
Nsg58
S'.ptlogin2.qq.com'
p109
sg59
g106
sg60
I00
sg61
Nsg62
S'd4fa0af49205880b'
p110
sg64
I01
sg65
(dp111
sg68
I0
sg69
I00
sg70
I00
sg71
I01
sg72
I01
sg73
g52
sg74
Nsg75
Nsg76
I00
sbsS'supertoken'
p112
(icookielib
Cookie
p113
(dp114
g57
Nsg58
S'.ptlogin2.qq.com'
p115
sg59
g112
sg60
I00
sg61
Nsg62
S'343308660'
p116
sg64
I01
sg65
(dp117
sg68
I0
sg69
I00
sg70
I00
sg71
I01
sg72
I01
sg73
g52
sg74
Nsg75
Nsg76
I00
sbsS'pt_recent_uins'
p118
(icookielib
Cookie
p119
(dp120
g57
Nsg58
S'.ptlogin2.qq.com'
p121
sg59
g118
sg60
I00
sg61
I1509240853
sg62
S'aad10a11ae3d874f29a658e9f27c0f25da7795792f6f12e2379a9b20567a0683fb1fbb258db2aef5125ef1bb440be9c9613ce00330d154d6'
p122
sg64
I01
sg65
(dp123
S'HttpOnly'
p124
Nssg68
I0
sg69
I00
sg70
I00
sg71
I00
sg72
I01
sg73
g52
sg74
Nsg75
Nsg76
I00
sbsS'ptnick_523366597'
p125
(icookielib
Cookie
p126
(dp127
g57
Nsg58
S'.ptlogin2.qq.com'
p128
sg59
g125
sg60
I00
sg61
Nsg62
S'28efbda1efbda5e28880efbda529efbe89'
p129
sg64
I01
sg65
(dp130
sg68
I0
sg69
I00
sg70
I00
sg71
I01
sg72
I01
sg73
g52
sg74
Nsg75
Nsg76
I00
sbsS'ETK'
p131
(icookielib
Cookie
p132
(dp133
g57
Nsg58
S'.ptlogin2.qq.com'
p134
sg59
g131
sg60
I00
sg61
Nsg62
g50
sg64
I01
sg65
(dp135
sg68
I0
sg69
I00
sg70
I00
sg71
I01
sg72
I01
sg73
g52
sg74
Nsg75
Nsg76
I00
sbsS'pt_clientip'
p136
(icookielib
Cookie
p137
(dp138
g57
Nsg58
S'.ptlogin2.qq.com'
p139
sg59
g136
sg60
I00
sg61
Nsg62
S'bdb0dbefe3dd664f'
p140
sg64
I01
sg65
(dp141
sg68
I0
sg69
I00
sg70
I00
sg71
I01
sg72
I01
sg73
g52
sg74
Nsg75
Nsg76
I00
sbsS'superkey'
p142
(icookielib
Cookie
p143
(dp144
g57
Nsg58
S'.ptlogin2.qq.com'
p145
sg59
g142
sg60
I00
sg61
Nsg62
S'fToSxEikIbZdrGQqWkjKK5pD0JJFG9Q*3UJHywIeQTw_'
p146
sg64
I01
sg65
(dp147
S'HttpOnly'
p148
Nssg68
I0
sg69
I00
sg70
I00
sg71
I01
sg72
I01
sg73
g52
sg74
Nsg75
Nsg76
I00
sbsS'superuin'
p149
(icookielib
Cookie
p150
(dp151
g57
Nsg58
S'.ptlogin2.qq.com'
p152
sg59
g149
sg60
I00
sg61
Nsg62
S'o0523366597'
p153
sg64
I01
sg65
(dp154
sg68
I0
sg69
I00
sg70
I00
sg71
I01
sg72
I01
sg73
g52
sg74
Nsg75
Nsg76
I00
sbsssS'.ui.ptlogin2.qq.com'
p155
(dp156
g52
(dp157
S'pt_user_id'
p158
(icookielib
Cookie
p159
(dp160
g57
Nsg58
g155
sg59
g158
sg60
I00
sg61
I1822008762
sg62
S'14847305800642386580'
p161
sg64
I01
sg65
(dp162
sg68
I0
sg69
I00
sg70
I00
sg71
I00
sg72
I01
sg73
g52
sg74
Nsg75
Nsg76
I00
sbsS'ptui_identifier'
p163
(icookielib
Cookie
p164
(dp165
g57
Nsg58
S'.ui.ptlogin2.qq.com'
p166
sg59
g163
sg60
I00
sg61
Nsg62
S'000D8081E379B3CE9B3D320E3F9E1955F6D87F049BB16293D0546225'
p167
sg64
I01
sg65
(dp168
sg68
I0
sg69
I00
sg70
I00
sg71
I01
sg72
I01
sg73
g52
sg74
Nsg75
Nsg76
I00
sbsssS'.qq.com'
p169
(dp170
g52
(dp171
S'skey'
p172
(icookielib
Cookie
p173
(dp174
g57
Nsg58
S'.qq.com'
p175
sg59
S'skey'
p176
sg60
I00
sg61
Nsg62
S'@LeiYi1Gsq'
p177
sg64
I01
sg65
(dp178
sg68
I0
sg69
I00
sg70
I00
sg71
I01
sg72
I01
sg73
g52
sg74
Nsg75
Nsg76
I00
sbsS'ptisp'
p179
(icookielib
Cookie
p180
(dp181
g57
Nsg58
S'.qq.com'
p182
sg59
g179
sg60
I00
sg61
Nsg62
S'ctc'
p183
sg64
I01
sg65
(dp184
sg68
I0
sg69
I00
sg70
I00
sg71
I01
sg72
I01
sg73
g52
sg74
Nsg75
Nsg76
I00
sbsS'ptwebqq'
p185
(icookielib
Cookie
p186
(dp187
g57
Nsg58
S'.qq.com'
p188
sg59
g185
sg60
I00
sg61
Nsg62
S'a978b01080c951f66119f829025aa5fdffe871408728c2524bc521fee98d9333'
p189
sg64
I01
sg65
(dp190
sg68
I0
sg69
I00
sg70
I00
sg71
I01
sg72
I01
sg73
g52
sg74
Nsg75
Nsg76
I00
sbsS'pt2gguin'
p191
(icookielib
Cookie
p192
(dp193
g57
Nsg58
S'.qq.com'
p194
sg59
S'pt2gguin'
p195
sg60
I00
sg61
I1577923200
sg62
S'o0523366597'
p196
sg64
I01
sg65
(dp197
sg68
I0
sg69
I00
sg70
I00
sg71
I00
sg72
I01
sg73
g52
sg74
Nsg75
Nsg76
I00
sbsS'uin'
p198
(icookielib
Cookie
p199
(dp200
g57
Nsg58
S'.qq.com'
p201
sg59
S'uin'
p202
sg60
I00
sg61
Nsg62
S'o0523366597'
p203
sg64
I01
sg65
(dp204
sg68
I0
sg69
I00
sg70
I00
sg71
I01
sg72
I01
sg73
g52
sg74
Nsg75
Nsg76
I00
sbsssS'.web2.qq.com'
p205
(dp206
g52
(dp207
S'p_uin'
p208
(icookielib
Cookie
p209
(dp210
g57
Nsg58
g205
sg59
g208
sg60
I00
sg61
Nsg62
S'o0523366597'
p211
sg64
I01
sg65
(dp212
sg68
I0
sg69
I00
sg70
I00
sg71
I01
sg72
I01
sg73
g52
sg74
Nsg75
Nsg76
I00
sbsS'p_skey'
p213
(icookielib
Cookie
p214
(dp215
g57
Nsg58
S'.web2.qq.com'
p216
sg59
g213
sg60
I00
sg61
Nsg62
S'3dMzGgP74-MfcXUljB1oYuOB8dml4t75kagOXcZ0WoE_'
p217
sg64
I01
sg65
(dp218
sg68
I0
sg69
I00
sg70
I00
sg71
I01
sg72
I01
sg73
g52
sg74
Nsg75
Nsg76
I00
sbsS'pt4_token'
p219
(icookielib
Cookie
p220
(dp221
g57
Nsg58
S'.web2.qq.com'
p222
sg59
g219
sg60
I00
sg61
Nsg62
S'6BeARdLYIEnj8u3TnNQsDeFGv4W0tZ1ZqnUQU80Kzzg_'
p223
sg64
I01
sg65
(dp224
sg68
I0
sg69
I00
sg70
I00
sg71
I01
sg72
I01
sg73
g52
sg74
Nsg75
Nsg76
I00
sbssssbsS'stream'
p225
I00
sS'hooks'
p226
(dp227
S'response'
p228
(lp229
ssS'redirect_cache'
p230
(dp231
sS'auth'
p232
NsS'trust_env'
p233
I01
sS'headers'
p234
g21
(crequests.structures
CaseInsensitiveDict
p235
g23
Ntp236
Rp237
(dp238
S'_store'
p239
crequests.packages.urllib3.packages.ordered_dict
OrderedDict
p240
((lp241
(lp242
S'connection'
p243
a(S'Connection'
p244
S'keep-alive'
p245
tp246
aa(lp247
S'accept-encoding'
p248
a(S'Accept-Encoding'
p249
S'gzip, deflate'
p250
tp251
aa(lp252
S'accept'
p253
a(S'Accept'
p254
S'*/*'
p255
tp256
aa(lp257
S'user-agent'
p258
a(S'User-Agent'
p259
S'Mozilla/5.0 (Macintosh; Intel Mac OS X 10.9; rv:27.0) Gecko/20100101 Firefox/27.0'
p260
tp261
aa(lp262
S'content-type'
p263
a(S'Content-Type'
p264
S'application/x-www-form-urlencoded; charset=UTF-8'
p265
tp266
aa(lp267
S'referer'
p268
a(S'Referer'
p269
S'http://d1.web2.qq.com/proxy.html?v=20151105001&callback=1&id=2'
p270
tp271
aa(lp272
S'origin'
p273
a(S'Origin'
p274
S'http://d1.web2.qq.com'
p275
tp276
aatp277
Rp278
sbsS'cert'
p279
NsS'params'
p280
(dp281
sS'prefetch'
p282
NsS'verify'
p283
I01
sS'proxies'
p284
(dp285
sS'adapters'
p286
g240
((lp287
(lp288
S'https://'
p289
ag21
(crequests.adapters
HTTPAdapter
p290
g23
Ntp291
Rp292
(dp293
S'_pool_block'
p294
I00
sS'_pool_maxsize'
p295
I10
sS'max_retries'
p296
g21
(crequests.packages.urllib3.util.retry
Retry
p297
g23
Ntp298
Rp299
(dp300
S'redirect'
p301
NsS'read'
p302
I00
sS'backoff_factor'
p303
I0
sS'respect_retry_after_header'
p304
I01
sS'history'
p305
(tsS'raise_on_status'
p306
I01
sS'connect'
p307
NsS'status_forcelist'
p308
c__builtin__
set
p309
((lp310
tp311
Rp312
sS'total'
p313
I0
sS'raise_on_redirect'
p314
I01
sS'method_whitelist'
p315
c__builtin__
frozenset
p316
((lp317
S'HEAD'
p318
aS'TRACE'
p319
aS'GET'
p320
aS'PUT'
p321
aS'OPTIONS'
p322
aS'DELETE'
p323
atp324
Rp325
sbsS'config'
p326
(dp327
sS'_pool_connections'
p328
I10
sbaa(lp329
S'http://'
p330
ag21
(g290
g23
Ntp331
Rp332
(dp333
g294
I00
sg295
I10
sg296
g21
(g297
g23
Ntp334
Rp335
(dp336
g301
Nsg302
I00
sg303
I0
sg304
I01
sg305
(tsg306
I01
sg307
Nsg308
g309
((lp337
tp338
Rp339
sg313
I0
sg314
I01
sg315
g325
sbsg326
(dp340
sg328
I10
sbaatp341
Rp342
sS'max_redirects'
p343
I30
sbsS'ptwebqq'
p344
g189
sS'dbname'
p345
S'/home/ubuntu8/yumingming/xnr1/xnr/static/images/QQ/1028/2017-09-29-09-34-13-523366597-contact.db'
p346
s.