((iwxpy.utils.puid_map
TwoWayDict
p0
(dp1
S'_reversed'
p2
(dp3
V38247820
p4
V@@e8d25189dc0c79eba296f6728aa59621a90595478b26c4d8aeeab86d38247820
p5
sVdc3875c9
p6
V@966e80b28c52d9d316f38c82dc3875c9
p7
sV7b49bffd
p8
V@cb4aa80eaeb0f31ae5a2ecb7efdc5a93146571994df8cfe917fc78cb7b49bffd
p9
sV1b5dae09
p10
V@@ad49b734c0633addf780fb094ba00a8e3bcc1d9c2df732905a45b7151b5dae09
p11
sVa002be62
p12
V@ee6726f1bf3f3412954b38972b5e415e071ea12f5555800898bf7a04a002be62
p13
sVe03fa4fb
p14
V@63076298da957f4f78a7e77640b6c7da20ecf68b39fbf0c194880520e03fa4fb
p15
sV9c727e25
p16
V@c55bdf2284db916191677b4d9c727e25
p17
sVc2df477f
p18
V@8162dc72160e8d72e26a65b2c2df477f
p19
sV31e5867f
p20
V@dc5f6accf8513b4e6ead39f831e5867f
p21
sV54f2dd9e
p22
V@@4e90a8d3e679e259a136599a427572a3c0be6ee34f201a1c33e9b56254f2dd9e
p23
sVb7c9a82a
p24
V@fafe014958cb21828a84de64b7c9a82a
p25
sV1e34eb41
p26
V@591b24a3bb4fc67bb20bfeed1e34eb41
p27
ssS'data'
p28
(dp29
g7
g6
sg17
g16
sg19
g18
sg5
g4
sg11
g10
sg23
g22
sg13
g12
sg21
g20
sg9
g8
sg27
g26
sg15
g14
sg25
g24
ssb(iwxpy.utils.puid_map
TwoWayDict
p30
(dp31
g2
(dp32
g12
I164115627
ssg28
(dp33
I164115627
g12
ssb(iwxpy.utils.puid_map
TwoWayDict
p34
(dp35
g2
(dp36
g18
Vid_65cb40bc-4912-11e8-b2ef-40f2e9dbc2dc
p37
sg14
Vid_68d3324c-4912-11e8-b2ef-40f2e9dbc2dc
p38
ssg28
(dp39
g37
g18
sg38
g14
ssb(iwxpy.utils.puid_map
TwoWayDict
p40
(dp41
g2
(dp42
g4
(V\u6d4b\u8bd5\u7fa4( \u2022\u0e34_\u2022 \u0e34)
p43
NNNtp44
sg6
(V\u8f9b\u96c6\u53d1\u5e03
p45
I0
V\u6cb3\u5317
p46
V\u77f3\u5bb6\u5e84
p47
tp48
sg8
(V\u6668
p49
I1
V\u6cb3\u5317
p50
V\u77f3\u5bb6\u5e84
p51
tp52
sg10
(Vtestwx
p53
NNNtp54
sg12
(V\u77f3\u6cab\u6cab
p55
I1
S''
p56
g56
tp57
sg14
(V\u9b3c\u513f\u005c
p58
I1
V\u6cb3\u5317
p59
V\u77f3\u5bb6\u5e84
p60
tp61
sg16
(V\u51b7\u5154
p62
I0
V\u5317\u4eac
p63
V\u4e1c\u57ce
p64
tp65
sg18
(VXerxes\U0001f31f
p66
I1
V\u6cb3\u5357
p67
V\u90d1\u5dde
p68
tp69
sg20
(V\u5c0f\u51b0
p70
I0
V\u5317\u4eac
p71
V\u6d77\u6dc0
p72
tp73
sg22
(V\u6d4b\u8bd5\u7fa42
p74
NNNtp75
sg24
(V\u7fa4\u804a
p76
I0
V\u5e7f\u897f
p77
V\u5357\u5b81
p78
tp79
sg26
(V\u817e\u8baf\u5ba2\u670d
p80
I0
V\u5e7f\u4e1c
p81
V\u6df1\u5733
p82
tp83
ssg28
(dp84
g69
g18
sg48
g6
sg79
g24
sg61
g14
sg54
g10
sg52
g8
sg65
g16
sg73
g20
sg83
g26
sg75
g22
sg44
g4
sg57
g12
ssbtp85
.