((iwxpy.utils.puid_map
TwoWayDict
p0
(dp1
S'_reversed'
p2
(dp3
V38247820
p4
V@@d11c1edf02b0a297e5e9085f1be278cf596beeea7d3ef01b2e6b423a631e1456
p5
sVdc3875c9
p6
V@9fce70a14a771a44c5a57b5bd554127f
p7
sVe1d59ba2
p8
V@678815321d83459a8e255a2b2daea325d65ec0e4e4a207d1c79e5f25e1d59ba2
p9
sV7b49bffd
p10
V@18c7f234c97376e152e4ccc38955e25e9fb46fe5da439e07a9263579456972a8
p11
sV1b5dae09
p12
V@@b6739242b7d451e53206b8f53ce5288e9e64b86c1ce0ec628b0fdb86f48d00a8
p13
sVa002be62
p14
V@d0e784946e4288b1257ca59b33d0832c677a970eed3d43456951373263a7f1bd
p15
sVe03fa4fb
p16
V@01d73e2e73222013a1d72cc4eed8c4a7472d459f0154ed71f77fa3f47ca8f709
p17
sV31e5867f
p18
V@1a44c24414ee5e8dba0cce890f4a8712
p19
sV9c727e25
p20
V@f35d3923392347d52c8856fd05160492
p21
sVc2df477f
p22
V@6d6c89e961e8cb294f59d77badb4e5e4
p23
sV3c3d0e97
p24
V@8e66ddf30441219e4bedb2576b31164451d3873f699a29034b4db26a3c3d0e97
p25
sVf3a69d4d
p26
V@16ed3353714330cc4d2567a757bc9205eecf016663286c53dbcc3335f3a69d4d
p27
sV54f2dd9e
p28
V@@842acdb5ca1219688317ce1cb38dbe3e932bfa74f925e42c27b5724c0029cc7b
p29
sVb7c9a82a
p30
V@851de17f5d597b257190d11f0b0d2991
p31
sV1e34eb41
p32
V@b89f9ce300fff851a9311b93af16a6b8
p33
ssS'data'
p34
(dp35
g7
g6
sg23
g22
sg11
g10
sg29
g28
sg13
g12
sg27
g26
sg9
g8
sg15
g14
sg33
g32
sg17
g16
sg25
g24
sg31
g30
sg5
g4
sg21
g20
sg19
g18
ssb(iwxpy.utils.puid_map
TwoWayDict
p36
(dp37
g2
(dp38
g14
I164115627
ssg34
(dp39
I164115627
g14
ssb(iwxpy.utils.puid_map
TwoWayDict
p40
(dp41
g2
(dp42
g22
Vid_65cb40bc-4912-11e8-b2ef-40f2e9dbc2dc
p43
sg24
Vid_a41634ec-4e96-11e8-b2ef-40f2e9dbc2dd
p44
sg16
Vid_68d3324c-4912-11e8-b2ef-40f2e9dbc2dc
p45
ssg34
(dp46
g43
g22
sg45
g16
sg44
g24
ssb(iwxpy.utils.puid_map
TwoWayDict
p47
(dp48
g2
(dp49
g4
(V\u6d4b\u8bd5\u7fa4( \u2022\u0e34_\u2022 \u0e34)
p50
NNNtp51
sg6
(V\u8f9b\u96c6\u53d1\u5e03
p52
I0
V\u6cb3\u5317
p53
V\u77f3\u5bb6\u5e84
p54
tp55
sg8
(V\u674e\u73b2\uff1a\u539a\u5fb7\u80fd\u8f7d\u7269\uff01
p56
I0
V
p57
g57
tp58
sg10
(V\u6668
p59
I1
V\u6cb3\u5317
p60
V\u77f3\u5bb6\u5e84
p61
tp62
sg12
(Vtestwx
p63
NNNtp64
sg14
(V\u77f3\u6cab\u6cab
p65
I1
S''
p66
g66
tp67
sg16
(V\u9b3c\u513f\u005c
p68
I1
V\u6cb3\u5317
p69
V\u77f3\u5bb6\u5e84
p70
tp71
sg18
(V\u5c0f\u51b0
p72
I0
V\u5317\u4eac
p73
V\u6d77\u6dc0
p74
tp75
sg20
(V\u51b7\u5154
p76
I0
V\u5317\u4eac
p77
V\u4e1c\u57ce
p78
tp79
sg22
(VXerxes\U0001f31f
p80
I1
V\u6cb3\u5357
p81
V\u90d1\u5dde
p82
tp83
sg24
(V\U0001f60f
p84
I1
V\u5317\u4eac
p85
V\u6d77\u6dc0
p86
tp87
sg26
(VAA\u9ad8\u7aef\u540d\u54c1\u5929\u5730
p88
I0
g57
g57
tp89
sg28
(V\u6d4b\u8bd5\u7fa42
p90
NNNtp91
sg30
(V\u7fa4\u804a
p92
I0
V\u5e7f\u897f
p93
V\u5357\u5b81
p94
tp95
sg32
(V\u817e\u8baf\u5ba2\u670d
p96
I0
V\u5e7f\u4e1c
p97
V\u6df1\u5733
p98
tp99
ssg34
(dp100
g83
g22
sg55
g6
sg95
g30
sg71
g16
sg51
g4
sg64
g12
sg62
g10
sg79
g20
sg75
g18
sg87
g24
sg91
g28
sg58
g8
sg99
g32
sg67
g14
sg89
g26
ssbtp101
.