(dp0
S'qq'
p1
S'1039598173'
p2
sS'psessionid'
p3
S'8368046764001d636f6e6e7365727665725f77656271714031302e3133332e34312e383400001ad00000066b026e040015808a206d0000000a406172314338344a69526d0000002859185d94e66218548d1ecb1a12513c86126b3afb97a3c2955b1070324790733ddb059ab166de6857'
p4
sS'hash'
p5
S'527851B4034D5516'
p6
sS'dbbasename'
p7
S'2018-03-06-19-49-13-1039598173-contact.db'
p8
sS'lastSendTime'
p9
I0
sS'msgId'
p10
I6000000
sS'bkn'
p11
I86293752
sS'urlPtwebqq'
p12
S'http://ptlogin2.web2.qq.com/check_sig?pttype=1&uin=1039598173&service=ptqrlogin&nodirect=0&ptsigx=c58a8cda9ddfd3e31ef9acac0423c12dbf28eb3d9e0483f61a5d1aa19ee77a06c95ecbb72485f9c44db5fedad3b90cd8405dcbee329345863f9b72aabdd3e29f&s_url=http%3A%2F%2Fw.qq.com%2Fproxy.html%3Flogin2qq%3D1%26webqq_type%3D10&f_url=&ptlang=2052&ptredirect=100&aid=501004106&daid=164&j_later=0&low_login_hour=0&regmaster=0&pt_login_type=3&pt_aid=0&pt_aaid=16&pt_light=0&pt_3rd_aid=0'
p13
sS'clientid'
p14
I53999199
sS'uin'
p15
I1039598173
sS'nick'
p16
S'\\/\xe7\x9f\xb3\xe6\xb2\xab\xe6\xb2\xab'
p17
sS'vfwebqq'
p18
S'782830dbc19c0ee05e59a15d7f22b00263980ab3b91bf1f71d0e6390d8884c45abc563476ca9aa8d'
p19
sS'session'
p20
ccopy_reg
_reconstructor
p21
(crequests.sessions
Session
p22
c__builtin__
object
p23
Ntp24
Rp25
(dp26
S'cookies'
p27
g21
(crequests.cookies
RequestsCookieJar
p28
g23
Ntp29
Rp30
(dp31
S'_now'
p32
I1520336954
sS'_policy'
p33
(icookielib
DefaultCookiePolicy
p34
(dp35
S'strict_rfc2965_unverifiable'
p36
I01
sS'strict_ns_domain'
p37
I0
sS'_allowed_domains'
p38
NsS'rfc2109_as_netscape'
p39
NsS'rfc2965'
p40
I00
sS'strict_domain'
p41
I00
sg32
I1520336954
sS'strict_ns_set_path'
p42
I00
sS'strict_ns_unverifiable'
p43
I00
sS'strict_ns_set_initial_dollar'
p44
I00
sS'hide_cookie2'
p45
I00
sS'_blocked_domains'
p46
(tsS'netscape'
p47
I01
sbsS'_cookies'
p48
(dp49
S''
p50
(dp51
S'/'
p52
(dp53
S'ptcz'
p54
(icookielib
Cookie
p55
(dp56
S'comment'
p57
NsS'domain'
p58
g50
sS'name'
p59
g54
sS'domain_initial_dot'
p60
I00
sS'expires'
p61
NsS'value'
p62
S'ad3bf14f9da2738e09e498bfeb93dd9da7540dea2b7a71acfb97ed4d3da4e277'
p63
sS'domain_specified'
p64
I00
sS'_rest'
p65
(dp66
S'HttpOnly'
p67
NssS'version'
p68
I0
sS'port_specified'
p69
I00
sS'rfc2109'
p70
I00
sS'discard'
p71
I01
sS'path_specified'
p72
I01
sS'path'
p73
g52
sS'port'
p74
NsS'comment_url'
p75
NsS'secure'
p76
I00
sbsS'pgv_pvi'
p77
(icookielib
Cookie
p78
(dp79
g57
Nsg58
g50
sg59
g77
sg60
I00
sg61
Nsg62
S'911366144'
p80
sg64
I00
sg65
(dp81
g67
Nssg68
I0
sg69
I00
sg70
I00
sg71
I01
sg72
I01
sg73
g52
sg74
Nsg75
Nsg76
I00
sbsS'pgv_info'
p82
(icookielib
Cookie
p83
(dp84
g57
Nsg58
g50
sg59
g82
sg60
I00
sg61
Nsg62
S'ssid pgv_pvid=1051433466'
p85
sg64
I00
sg65
(dp86
g67
Nssg68
I0
sg69
I00
sg70
I00
sg71
I01
sg72
I01
sg73
g52
sg74
Nsg75
Nsg76
I00
sbsS'RK'
p87
(icookielib
Cookie
p88
(dp89
g57
Nsg58
g50
sg59
g87
sg60
I00
sg61
Nsg62
S'OfeLBai4FB'
p90
sg64
I00
sg65
(dp91
g67
Nssg68
I0
sg69
I00
sg70
I00
sg71
I01
sg72
I01
sg73
g52
sg74
Nsg75
Nsg76
I00
sbsssS'.ptlogin2.qq.com'
p92
(dp93
g52
(dp94
S'pt_login_sig'
p95
(icookielib
Cookie
p96
(dp97
g57
Nsg58
g92
sg59
g95
sg60
I00
sg61
Nsg62
S'DFWw638yoN*Ldcs2aSU0cumc6Uh9WturYCQulRt9Y6RR3PJJtT4MnxEAB5KOdQEK'
p98
sg64
I01
sg65
(dp99
sg68
I0
sg69
I00
sg70
I00
sg71
I01
sg72
I01
sg73
g52
sg74
Nsg75
Nsg76
I00
sbsS'qrsig'
p100
(icookielib
Cookie
p101
(dp102
g57
Nsg58
S'.ptlogin2.qq.com'
p103
sg59
g100
sg60
I00
sg61
Nsg62
S'635kbURnaNhJ64uN07kqphjWl-sU52Al-Hgo-0EDEBeIJnw3oY5kWWlpK1lAOeRV'
p104
sg64
I01
sg65
(dp105
sg68
I0
sg69
I00
sg70
I00
sg71
I01
sg72
I01
sg73
g52
sg74
Nsg75
Nsg76
I00
sbsS'ptnick_1039598173'
p106
(icookielib
Cookie
p107
(dp108
g57
Nsg58
S'.ptlogin2.qq.com'
p109
sg59
g106
sg60
I00
sg61
Nsg62
S'2fe79fb3e6b2abe6b2ab'
p110
sg64
I01
sg65
(dp111
sg68
I0
sg69
I00
sg70
I00
sg71
I01
sg72
I01
sg73
g52
sg74
Nsg75
Nsg76
I00
sbsS'pt_serverip'
p112
(icookielib
Cookie
p113
(dp114
g57
Nsg58
S'.ptlogin2.qq.com'
p115
sg59
g112
sg60
I00
sg61
Nsg62
S'db820af498109051'
p116
sg64
I01
sg65
(dp117
sg68
I0
sg69
I00
sg70
I00
sg71
I01
sg72
I01
sg73
g52
sg74
Nsg75
Nsg76
I00
sbsS'supertoken'
p118
(icookielib
Cookie
p119
(dp120
g57
Nsg58
S'.ptlogin2.qq.com'
p121
sg59
g118
sg60
I00
sg61
Nsg62
S'1140851409'
p122
sg64
I01
sg65
(dp123
sg68
I0
sg69
I00
sg70
I00
sg71
I01
sg72
I01
sg73
g52
sg74
Nsg75
Nsg76
I00
sbsS'pt_recent_uins'
p124
(icookielib
Cookie
p125
(dp126
g57
Nsg58
S'.ptlogin2.qq.com'
p127
sg59
g124
sg60
I00
sg61
I1522928953
sg62
S'f92883337b7b05abb312cfc57e46b60c85285013f4b4648e02883038edba1185740a17deec44333476d98d67cbcbedcc7f0beca87d762923'
p128
sg64
I01
sg65
(dp129
S'HttpOnly'
p130
Nssg68
I0
sg69
I00
sg70
I00
sg71
I00
sg72
I01
sg73
g52
sg74
Nsg75
Nsg76
I00
sbsS'ETK'
p131
(icookielib
Cookie
p132
(dp133
g57
Nsg58
S'.ptlogin2.qq.com'
p134
sg59
g131
sg60
I00
sg61
Nsg62
g50
sg64
I01
sg65
(dp135
sg68
I0
sg69
I00
sg70
I00
sg71
I01
sg72
I01
sg73
g52
sg74
Nsg75
Nsg76
I00
sbsS'pt_clientip'
p136
(icookielib
Cookie
p137
(dp138
g57
Nsg58
S'.ptlogin2.qq.com'
p139
sg59
g136
sg60
I00
sg61
Nsg62
S'86e9dbefe3dd82ba'
p140
sg64
I01
sg65
(dp141
sg68
I0
sg69
I00
sg70
I00
sg71
I01
sg72
I01
sg73
g52
sg74
Nsg75
Nsg76
I00
sbsS'superkey'
p142
(icookielib
Cookie
p143
(dp144
g57
Nsg58
S'.ptlogin2.qq.com'
p145
sg59
g142
sg60
I00
sg61
Nsg62
S'gAtioUeGro-vL*h4g6gO8U9UoQGVSgQNihYYffFzNss_'
p146
sg64
I01
sg65
(dp147
S'HttpOnly'
p148
Nssg68
I0
sg69
I00
sg70
I00
sg71
I01
sg72
I01
sg73
g52
sg74
Nsg75
Nsg76
I00
sbsS'superuin'
p149
(icookielib
Cookie
p150
(dp151
g57
Nsg58
S'.ptlogin2.qq.com'
p152
sg59
g149
sg60
I00
sg61
Nsg62
S'o1039598173'
p153
sg64
I01
sg65
(dp154
sg68
I0
sg69
I00
sg70
I00
sg71
I01
sg72
I01
sg73
g52
sg74
Nsg75
Nsg76
I00
sbsssS'.ui.ptlogin2.qq.com'
p155
(dp156
g52
(dp157
S'pt_user_id'
p158
(icookielib
Cookie
p159
(dp160
g57
Nsg58
g155
sg59
g158
sg60
I00
sg61
I1835696928
sg62
S'15037537519557746016'
p161
sg64
I01
sg65
(dp162
sg68
I0
sg69
I00
sg70
I00
sg71
I00
sg72
I01
sg73
g52
sg74
Nsg75
Nsg76
I00
sbsssS'.qq.com'
p163
(dp164
g52
(dp165
S'skey'
p166
(icookielib
Cookie
p167
(dp168
g57
Nsg58
S'.qq.com'
p169
sg59
S'skey'
p170
sg60
I00
sg61
Nsg62
S'@6rbqPcjf5'
p171
sg64
I01
sg65
(dp172
sg68
I0
sg69
I00
sg70
I00
sg71
I01
sg72
I01
sg73
g52
sg74
Nsg75
Nsg76
I00
sbsS'ptcz'
p173
(icookielib
Cookie
p174
(dp175
g57
Nsg58
S'.qq.com'
p176
sg59
g173
sg60
I00
sg61
I2147483647
sg62
S'ad3bf14f9da2738e09e498bfeb93dd9da7540dea2b7a71acfb97ed4d3da4e277'
p177
sg64
I01
sg65
(dp178
sg68
I0
sg69
I00
sg70
I00
sg71
I00
sg72
I01
sg73
g52
sg74
Nsg75
Nsg76
I00
sbsS'pt2gguin'
p179
(icookielib
Cookie
p180
(dp181
g57
Nsg58
S'.qq.com'
p182
sg59
S'pt2gguin'
p183
sg60
I00
sg61
I2147483647
sg62
S'o1039598173'
p184
sg64
I01
sg65
(dp185
sg68
I0
sg69
I00
sg70
I00
sg71
I00
sg72
I01
sg73
g52
sg74
Nsg75
Nsg76
I00
sbsS'ptwebqq'
p186
(icookielib
Cookie
p187
(dp188
g57
Nsg58
S'.qq.com'
p189
sg59
g186
sg60
I00
sg61
Nsg62
S'11d06facd6ee4a30be179733610c78b64c306ca036db893f5784fa84a155db03'
p190
sg64
I01
sg65
(dp191
sg68
I0
sg69
I00
sg70
I00
sg71
I01
sg72
I01
sg73
g52
sg74
Nsg75
Nsg76
I00
sbsS'uin'
p192
(icookielib
Cookie
p193
(dp194
g57
Nsg58
S'.qq.com'
p195
sg59
S'uin'
p196
sg60
I00
sg61
Nsg62
S'o1039598173'
p197
sg64
I01
sg65
(dp198
sg68
I0
sg69
I00
sg70
I00
sg71
I01
sg72
I01
sg73
g52
sg74
Nsg75
Nsg76
I00
sbsssS'.web2.qq.com'
p199
(dp200
g52
(dp201
S'p_uin'
p202
(icookielib
Cookie
p203
(dp204
g57
Nsg58
g199
sg59
g202
sg60
I00
sg61
Nsg62
S'o1039598173'
p205
sg64
I01
sg65
(dp206
sg68
I0
sg69
I00
sg70
I00
sg71
I01
sg72
I01
sg73
g52
sg74
Nsg75
Nsg76
I00
sbsS'p_skey'
p207
(icookielib
Cookie
p208
(dp209
g57
Nsg58
S'.web2.qq.com'
p210
sg59
g207
sg60
I00
sg61
Nsg62
S'*nk*44Z2EDY7dmo9orRj7h2kN0xh2MicItee4gumHlI_'
p211
sg64
I01
sg65
(dp212
sg68
I0
sg69
I00
sg70
I00
sg71
I01
sg72
I01
sg73
g52
sg74
Nsg75
Nsg76
I00
sbsS'pt4_token'
p213
(icookielib
Cookie
p214
(dp215
g57
Nsg58
S'.web2.qq.com'
p216
sg59
g213
sg60
I00
sg61
Nsg62
S'nt9*mR0dZA6ACYAsARCo1Msr69OAvAmQbtBc4vOTADo_'
p217
sg64
I01
sg65
(dp218
sg68
I0
sg69
I00
sg70
I00
sg71
I01
sg72
I01
sg73
g52
sg74
Nsg75
Nsg76
I00
sbssssbsS'stream'
p219
I00
sS'hooks'
p220
(dp221
S'response'
p222
(lp223
ssS'auth'
p224
NsS'trust_env'
p225
I01
sS'headers'
p226
g21
(crequests.structures
CaseInsensitiveDict
p227
g23
Ntp228
Rp229
(dp230
S'_store'
p231
curllib3.packages.ordered_dict
OrderedDict
p232
((lp233
(lp234
S'connection'
p235
a(S'Connection'
p236
S'keep-alive'
p237
tp238
aa(lp239
S'accept-encoding'
p240
a(S'Accept-Encoding'
p241
S'gzip, deflate'
p242
tp243
aa(lp244
S'accept'
p245
a(S'Accept'
p246
S'*/*'
p247
tp248
aa(lp249
S'user-agent'
p250
a(S'User-Agent'
p251
S'Mozilla/5.0 (Macintosh; Intel Mac OS X 10.9; rv:27.0) Gecko/20100101 Firefox/27.0'
p252
tp253
aa(lp254
S'content-type'
p255
a(S'Content-Type'
p256
S'application/x-www-form-urlencoded; charset=UTF-8'
p257
tp258
aa(lp259
S'referer'
p260
a(S'Referer'
p261
S'http://d1.web2.qq.com/proxy.html?v=20151105001&callback=1&id=2'
p262
tp263
aa(lp264
S'origin'
p265
a(S'Origin'
p266
S'http://d1.web2.qq.com'
p267
tp268
aatp269
Rp270
sbsS'cert'
p271
NsS'params'
p272
(dp273
sS'prefetch'
p274
NsS'verify'
p275
I01
sS'proxies'
p276
(dp277
sS'adapters'
p278
g232
((lp279
(lp280
S'https://'
p281
ag21
(crequests.adapters
HTTPAdapter
p282
g23
Ntp283
Rp284
(dp285
S'_pool_block'
p286
I00
sS'_pool_maxsize'
p287
I10
sS'max_retries'
p288
g21
(curllib3.util.retry
Retry
p289
g23
Ntp290
Rp291
(dp292
S'status'
p293
NsS'redirect'
p294
NsS'read'
p295
I00
sS'backoff_factor'
p296
I0
sS'respect_retry_after_header'
p297
I01
sS'history'
p298
(tsS'raise_on_status'
p299
I01
sS'connect'
p300
NsS'status_forcelist'
p301
c__builtin__
set
p302
((lp303
tp304
Rp305
sS'total'
p306
I0
sS'raise_on_redirect'
p307
I01
sS'method_whitelist'
p308
c__builtin__
frozenset
p309
((lp310
S'HEAD'
p311
aS'TRACE'
p312
aS'GET'
p313
aS'PUT'
p314
aS'OPTIONS'
p315
aS'DELETE'
p316
atp317
Rp318
sbsS'config'
p319
(dp320
sS'_pool_connections'
p321
I10
sbaa(lp322
S'http://'
p323
ag21
(g282
g23
Ntp324
Rp325
(dp326
g286
I00
sg287
I10
sg288
g21
(g289
g23
Ntp327
Rp328
(dp329
g293
Nsg294
Nsg295
I00
sg296
I0
sg297
I01
sg298
(tsg299
I01
sg300
Nsg301
g302
((lp330
tp331
Rp332
sg306
I0
sg307
I01
sg308
g318
sbsg319
(dp333
sg321
I10
sbaatp334
Rp335
sS'max_redirects'
p336
I30
sbsS'ptwebqq'
p337
g190
sS'dbname'
p338
S'/home/ubuntu8/yumingming/xnr1/xnr/static/images/QQ/1040/2018-03-06-19-49-13-1039598173-contact.db'
p339
s.